   1              		.file	"mpc_v2_api.c"
   2              		.section	".text"
   3              	.Ltext0:
   4              		.cfi_sections	.debug_frame
   5              		.align 2
   6              		.globl task_100ms
   7              		.type	task_100ms, @function
   8              	task_100ms:
   9              	.LFB1:
  10              		.file 1 "mpc_v2_api.c"
  11              		.loc 1 1074 0
  12              		.cfi_startproc
  13 0000 9421FFF8 		stwu %r1,-8(%r1)
  14              	.LCFI0:
  15              		.cfi_def_cfa_offset 8
  16 0004 7C0802A6 		mflr %r0
  17 0008 9001000C 		stw %r0,12(%r1)
  18              		.cfi_offset 65, 4
  19              		.loc 1 1075 0
  20 000c 48000001 		bl pkn_100ms_model_task
  21              	.LVL0:
  22              		.loc 1 1076 0
  23 0010 48000001 		bl psp_spi_trigger
  24              	.LVL1:
  25              		.loc 1 1077 0
  26 0014 8001000C 		lwz %r0,12(%r1)
  27 0018 7C0803A6 		mtlr %r0
  28 001c 38210008 		addi %r1,%r1,8
  29              	.LCFI1:
  30              		.cfi_restore 65
  31              		.cfi_def_cfa_offset 0
  32 0020 4E800020 		blr
  33              		.cfi_endproc
  34              	.LFE1:
  35              		.size	task_100ms, .-task_100ms
  36              		.align 2
  37              		.globl task_10ms
  38              		.type	task_10ms, @function
  39              	task_10ms:
  40              	.LFB0:
  41              		.loc 1 1057 0
  42              		.cfi_startproc
  43 0024 9421FFF8 		stwu %r1,-8(%r1)
  44              	.LCFI2:
  45              		.cfi_def_cfa_offset 8
  46 0028 7C0802A6 		mflr %r0
  47 002c 9001000C 		stw %r0,12(%r1)
  48              		.cfi_offset 65, 4
  49              		.loc 1 1058 0
  50 0030 48000001 		bl pkn_10ms_model_task
  51              	.LVL2:
  52              		.loc 1 1059 0
  53 0034 48000001 		bl psp_spi_trigger
  54              	.LVL3:
  55              		.loc 1 1060 0
  56 0038 8001000C 		lwz %r0,12(%r1)
  57 003c 7C0803A6 		mtlr %r0
  58 0040 38210008 		addi %r1,%r1,8
  59              	.LCFI3:
  60              		.cfi_restore 65
  61              		.cfi_def_cfa_offset 0
  62 0044 4E800020 		blr
  63              		.cfi_endproc
  64              	.LFE0:
  65              		.size	task_10ms, .-task_10ms
  66              		.globl ptpu_override_sdm_allocation
  67              		.globl pj1939_num_st_ds_spns
  68              		.globl pj1939_st_ds_spns_list
  69              		.globl pj1939_transient
  70              		.globl pj1939_sent
  71              		.globl pj1939_state
  72              		.globl pdtc_table_list
  73              		.globl pdtc_num_dtc_tables
  74              		.globl pdtc_table_all
  75              		.globl pdtc_dtcs_for_table_all
  76              		.globl pdtc_nv_counters
  77              		.globl pdtc_first_last_record
  78              		.globl pdtc_transition_prev_act_to_pend
  79              		.globl pdtc_lamp_flashing_is_priority
  80              		.globl pdtc_store
  81              		.globl psc_mem_runtime_checks_enabled
  82              		.globl psc_watchdog_task_enabled
  83              		.globl pcp_security_dev_mode
  84              		.globl pcp_num_seed_key_files
  85              		.globl pcp_num_seed_key_configs
  86              		.globl pcp_seed_key_config
  87              		.globl ccp_num_odts
  88              		.globl ccp_num_daqs
  89              		.globl ccp_first_odt
  90              		.globl ccp_odt_list
  91              		.globl ccp_daq_list
  92              		.globl ccp_daq_size
  93              		.globl pcp_ccpenabled
  94              		.globl pfs_directory
  95              		.globl pfs_write_queue
  96              		.globl pfs_max_num_platform_files
  97              		.globl pfs_max_num_user_files
  98              		.globl pfs_write_queue_size
  99              		.globl ppr_num_dme
 100              		.globl ppr_dme_table
 101              		.globl ppr_j1939_test_mapping_list
 102              		.globl ppr_num_dte
 103              		.globl ppr_dte_table
 104              		.globl ppr_store
 105              		.globl pff_dtc_sev_and_ff_idx_list
 106              		.globl pff_dtc_sev_overrides_ff_age
 107              		.globl pff_dm25_spn_set_ptr
 108              		.globl pff_num_dm25_spns
 109              		.globl pff_app_max_num_files
 110              		.globl pff_uds_ffno_fid_map
 111              		.globl pff_exp_ffno_fid_map
 112              		.globl pff_std_ffno_fid_map
 113              		.globl pff_iso_ffno_fid_map
 114              		.globl pff_max_nvm
 115              		.globl pff_data_holding_size
 116              		.globl pff_data_holding
 117              		.globl pdg_num_routines
 118              		.globl pdg_routine_table
 119              		.globl ppid_allow_only_app_nv
 120              		.globl ppid_nv_buffer_size
 121              		.globl ppid_nv_buffer
 122              		.globl ppid_num_app_nv_pids
 123              		.globl ppid_app_allowed_nv_pids
 124              		.globl ppid_num_j1939_spns
 125              		.globl ppid_j1939_spn_map
 126              		.globl ppid_num_kwp_ids
 127              		.globl ppid_kwp_8bit_map
 128              		.globl ppid_num_j1979_ids
 129              		.globl ppid_j1979_8bit_map
 130              		.globl ppid_num_pids
 131              		.globl ppid_table
 132              		.globl pdg_pdid_pool_data_array
 133              		.globl pdg_pdid_pool_num_bytes
 134              		.globl pdg_ddid_pool_data_array
 135              		.globl pdg_ddid_pool_num_bytes
 136              		.globl pdg_pdid_base_period
 137              		.globl pdg_extd_data_rec_num
 138              		.globl pdgc_override_service_0a
 139              		.globl pdgc_override_service_07
 140              		.globl pdgc_override_service_03
 141              		.globl pdgc_func_can_rx_id
 142              		.globl pdg_iso_rx_buffer_size
 143              		.globl pdg_iso_rx_buffer
 144              		.globl pdg_active_session_kwp_8bit_id
 145              		.globl pdg_active_session_has_id8
 146              		.globl pdg_active_session_iso_16bit_id
 147              		.globl pdg_active_session_has_id16
 148              		.globl pdg_mem_read_needs_security
 149              		.globl pdg_mem_read_ok_prog_session
 150              		.globl pdg_mem_read_ok_extd_session
 151              		.globl pdg_mem_read_ok_def_session
 152              		.globl pdg_specific_mem_read_security_level
 153              		.globl pdg_num_mem_read_security_levels
 154              		.globl pdg_specific_flash_security_level
 155              		.globl pdg_num_flash_security_levels
 156              		.globl pdg_security_mem_read_allowed_option
 157              		.globl pdg_security_flash_allowed_option
 158              		.globl pdg_security_end_ptr
 159              		.globl pdg_security_callback_ptr
 160              		.globl pdg_id_request_callback_ptr
 161              		.globl pdg_general_callback_ptr
 162              		.globl pdg_iso_tx_buffer_size
 163              		.globl pdg_iso_tx_buffer
 164              		.globl pdgc_emissions_report_min_sev
 165              		.globl pdgc_can_bus_id
 166              		.globl pdgc_can_rx_id_extd
 167              		.globl pdgc_can_rx_id
 168              		.globl pdgc_can_tx_id_extd
 169              		.globl pdgc_can_tx_id
 170              		.globl pdg_enabled
 171              		.globl pj1939_mem_sec_reprog_cal
 172              		.globl pj1939_mem_sec_config_cal
 173              		.globl svcc_ecu_reprog_seedkey_cal
 174              		.globl svcc_ecu_config_seedkey_cal
 175              		.globl pj1939_num_aecd
 176              		.globl pj1939_aecd_table
 177              		.globl pj1939_dm2_rx_counters
 178              		.globl pj1939_dm2_rx_buf
 179              		.globl pj1939_dm2_rx_buf_data
 180              		.globl pj1939_dm2_source_addr
 181              		.globl pj1939_dm2_source_addr_num
 182              		.globl pj1939_dm1_rx_counters
 183              		.globl pj1939_dm1_rx_buf
 184              		.globl pj1939_dm1_rx_buf_data
 185              		.globl pj1939_dm1_source_addr
 186              		.globl pj1939_dm1_source_addr_num
 187              		.globl out_queue
 188              		.globl in_queue
 189              		.globl rx_message
 190              		.globl tx_state
 191              		.globl pj1939_msg_buffer
 192              		.globl pj1939_ttx_error_ptr
 193              		.globl pj1939_ttx_buf_data
 194              		.globl pj1939_ttx_buf
 195              		.globl pj1939_req_test_list
 196              		.globl pj1939_common_multiframe_priority
 197              		.globl pj1939_use_common_mf_priority
 198              		.globl pj1939_dm7_request_buf_size
 199              		.globl pj1939_num_rx_tx_bufs
 200              		.globl pj1939_size_j1939_rx_buf
 201              		.globl pj1939_num_trx
 202              		.globl pj1939_num_ttx
 203              		.globl pj1939_can_link
 204              		.globl pj1939_rx_buf
 205              		.globl pj1939_rx_buf_data
 206              		.globl pj1939_rx_buf_data_size
 207              		.globl pj1939_num_requested_pgns
 208              		.globl pj1939_pgn_requested_bitmap
 209              		.globl pj1939_pgn_requested_timestamp
 210              		.globl pj1939_pgn_requested_dest_addr
 211              		.globl pj1939_pgn_requested_src_addr
 212              		.globl pj1939_pgn_requested_table
 213              		.globl pj1939_num_pgns
 214              		.globl _pgn_table
 215              		.globl pj1939_num_node_addr
 216              		.globl node_addr
 217              		.globl pj1939c_node_addr_0
 218              		.globl name
 219              		.globl pj1939_enabled
 220              		.globl pcx_queued_tx_list
 221              		.globl pcx_tx_msg
 222              		.globl pcx_sorted_rx_msg
 223              		.globl pcx_rx_msg
 224              		.globl pcx_tot_allow_msg_rx
 225              		.globl pcx_tot_allow_msg_tx
 226              		.globl psc_calibration_header
 227              		.globl pkn_max_task_time
 228              		.globl pkn_task_time
 229              		.globl pkn_task_accum_time
 230              		.globl pkn_task_start_time
 231              		.globl pkn_pff_buff_r_hdl
 232              		.globl pkn_pfs_structs_r_hdl
 233              		.globl pkn_ppid_buf_r_hdl
 234              		.globl pkn_j1939_buf_r_hdl
 235              		.globl pkn_can_queues_r_hdl
 236              		.globl pkn_psp_logical_queues_r_hdl
 237              		.globl pkn_resource_table
 238              		.globl pkn_ceiling_records
 239              		.globl pkn_pcp_client_periodic_hdl
 240              		.globl pkn_psc_watchdog_periodic_hdl
 241              		.globl pkn_psp_periodic_periodic_hdl
 242              		.globl pkn_pcx_queue_emptier_periodic_hdl
 243              		.globl pkn_pdtc_client_task_periodic_hdl
 244              		.globl pkn_task_100ms_periodic_hdl
 245              		.globl pkn_task_10ms_periodic_hdl
 246              		.globl pkn_pdg_client_task_periodic_hdl
 247              		.globl pkn_piso_client_task_periodic_hdl
 248              		.globl pkn_pfs_client_periodic_hdl
 249              		.globl pkn_pff_client_periodic_hdl
 250              		.globl pkn_pj1939_client_periodic_hdl
 251              		.globl pkn_pcx_can_callback_periodic_hdl
 252              		.globl pkn_pfc_task_periodic_hdl
 253              		.globl pkn_pss_task_periodic_hdl
 254              		.globl pkn_periodic_task_table
 255              		.globl pkn_periodic_task_overrun_count
 256              		.globl pkn_periodic_records
 257              		.globl pkn_angular_model_task_hdl
 258              		.globl pkn_pcp_client_task_hdl
 259              		.globl pkn_psc_watchdog_task_hdl
 260              		.globl pkn_psp_periodic_task_hdl
 261              		.globl pkn_pcx_queue_emptier_task_hdl
 262              		.globl pkn_pdtc_client_task_task_hdl
 263              		.globl pkn_task_100ms_task_hdl
 264              		.globl pkn_task_10ms_task_hdl
 265              		.globl pkn_pdg_client_task_task_hdl
 266              		.globl pkn_piso_client_task_task_hdl
 267              		.globl pkn_pfs_client_task_hdl
 268              		.globl pkn_pff_client_task_hdl
 269              		.globl pkn_pj1939_client_task_hdl
 270              		.globl pkn_pcx_can_callback_task_hdl
 271              		.globl pkn_pcx_queue_emptier_sporadic_task_hdl
 272              		.globl pkn_psp_receive_task_hdl
 273              		.globl pkn_pfc_task_task_hdl
 274              		.globl pkn_pan_task_task_hdl
 275              		.globl pkn_pss_task_task_hdl
 276              		.globl pkn_task_table
 277              		.globl pkn_num_resources
 278              		.globl pkn_num_periodic_tasks
 279              		.globl pkn_num_tasks
 280              		.globl mplc_tcr1_scalar
 281              		.globl pnv_store
 282              		.globl pioc_rate_spot_max_hz
 283              		.globl pioc_rate_pot_max_hz
 284              		.globl pmem_memory_configuration_option
 285              		.globl psc_system_stack
 286              		.globl psc_app_build_str
 287              		.globl psc_app_build_year
 288              		.globl psc_app_build_month
 289              		.globl psc_app_build_day
 290              		.globl psc_app_build_hour
 291              		.globl psc_app_build_min
 292              		.globl psc_app_build_sec
 293              		.globl psc_app_ver
 294              		.globl psc_app_name
 295              		.globl psc_app_desc
 296              		.globl psc_app_copyright
 297              		.globl psc_app_sub_minor_ver_num
 298              		.globl psc_app_minor_ver_num
 299              		.globl psc_app_major_ver_num
 300              		.section	.rodata
 301              		.align 2
 302              		.type	pdtc_table_all, @object
 303              		.size	pdtc_table_all, 12
 304              	pdtc_table_all:
 305 0000 0000     		.short	0
 306 0002 0000     		.short	0
 307 0004 00000000 		.long	pdtc_dtcs_for_table_all
 308 0008 00000000 		.long	0
 309              		.type	pcp_seed_key_config, @object
 310              		.size	pcp_seed_key_config, 20
 311              	pcp_seed_key_config:
 312 000c 43       		.byte	67
 313 000d 00       		.byte	0
 314 000e 0000     		.zero	2
 315 0010 00000000 		.long	0
 316 0014 00000000 		.long	0
 317 0018 00000000 		.long	0
 318 001c 00000000 		.long	0
 319              		.type	ppr_dme_table, @object
 320              		.size	ppr_dme_table, 14
 321              	ppr_dme_table:
 322 0020 00000000 		.zero	14
 322      00000000 
 322      00000000 
 322      0000
 323 002e 0000     		.zero	2
 324              		.type	ppr_j1939_test_mapping_list, @object
 325              		.size	ppr_j1939_test_mapping_list, 64
 326              	ppr_j1939_test_mapping_list:
 327 0030 00000000 		.zero	64
 327      00000000 
 327      00000000 
 327      00000000 
 327      00000000 
 328              		.type	ppr_dte_table, @object
 329              		.size	ppr_dte_table, 19
 330              	ppr_dte_table:
 331 0070 00000000 		.zero	19
 331      00000000 
 331      00000000 
 331      00000000 
 331      000000
 332 0083 00       		.zero	1
 333              		.type	ppid_app_allowed_nv_pids, @object
 334              		.size	ppid_app_allowed_nv_pids, 12
 335              	ppid_app_allowed_nv_pids:
 336 0084 00000000 		.zero	12
 336      00000000 
 336      00000000 
 337              		.type	ppid_table, @object
 338              		.size	ppid_table, 40
 339              	ppid_table:
 340 0090 00000000 		.zero	40
 340      00000000 
 340      00000000 
 340      00000000 
 340      00000000 
 341              		.type	pkn_resource_table, @object
 342              		.size	pkn_resource_table, 72
 343              	pkn_resource_table:
 344 00b8 00000000 		.long	pkn_ceiling_records
 345 00bc 581B2000 		.long	1478172672
 346 00c0 7FFFFFFF 		.long	2147483647
 347 00c4 00000000 		.long	pkn_ceiling_records+4
 348 00c8 0E1A6000 		.long	236609536
 349 00cc 0FFFFFFF 		.long	268435455
 350 00d0 00000000 		.long	pkn_ceiling_records+8
 351 00d4 02182000 		.long	35135488
 352 00d8 03FFFFFF 		.long	67108863
 353 00dc 00000000 		.long	pkn_ceiling_records+12
 354 00e0 00782000 		.long	7872512
 355 00e4 007FFFFF 		.long	8388607
 356 00e8 00000000 		.long	pkn_ceiling_records+16
 357 00ec 01BC6000 		.long	29122560
 358 00f0 01FFFFFF 		.long	33554431
 359 00f4 00000000 		.long	pkn_ceiling_records+20
 360 00f8 01182000 		.long	18358272
 361 00fc 01FFFFFF 		.long	33554431
 362              		.type	pkn_periodic_task_table, @object
 363              		.size	pkn_periodic_task_table, 360
 364              	pkn_periodic_task_table:
 365 0100 00000000 		.long	pkn_periodic_records
 366 0104 00000000 		.long	pkn_periodic_task_overrun_count
 367 0108 01       		.byte	1
 368 0109 000000   		.zero	3
 369 010c 00000004 		.long	4
 370 0110 0000000A 		.long	10
 371 0114 00000000 		.long	pkn_task_table
 372 0118 00000000 		.long	pkn_periodic_records+4
 373 011c 00000000 		.long	pkn_periodic_task_overrun_count+1
 374 0120 01       		.byte	1
 375 0121 000000   		.zero	3
 376 0124 00000007 		.long	7
 377 0128 00000064 		.long	100
 378 012c 00000000 		.long	pkn_task_table+24
 379 0130 00000000 		.long	pkn_periodic_records+8
 380 0134 00000000 		.long	pkn_periodic_task_overrun_count+2
 381 0138 00       		.byte	0
 382 0139 000000   		.zero	3
 383 013c 00000008 		.long	8
 384 0140 00000002 		.long	2
 385 0144 00000000 		.long	pkn_task_table+60
 386 0148 00000000 		.long	pkn_periodic_records+12
 387 014c 00000000 		.long	pkn_periodic_task_overrun_count+3
 388 0150 01       		.byte	1
 389 0151 000000   		.zero	3
 390 0154 00000002 		.long	2
 391 0158 00000005 		.long	5
 392 015c 00000000 		.long	pkn_task_table+72
 393 0160 00000000 		.long	pkn_periodic_records+16
 394 0164 00000000 		.long	pkn_periodic_task_overrun_count+4
 395 0168 01       		.byte	1
 396 0169 000000   		.zero	3
 397 016c 00000003 		.long	3
 398 0170 0000000A 		.long	10
 399 0174 00000000 		.long	pkn_task_table+84
 400 0178 00000000 		.long	pkn_periodic_records+20
 401 017c 00000000 		.long	pkn_periodic_task_overrun_count+5
 402 0180 01       		.byte	1
 403 0181 000000   		.zero	3
 404 0184 00000003 		.long	3
 405 0188 0000000A 		.long	10
 406 018c 00000000 		.long	pkn_task_table+96
 407 0190 00000000 		.long	pkn_periodic_records+24
 408 0194 00000000 		.long	pkn_periodic_task_overrun_count+6
 409 0198 01       		.byte	1
 410 0199 000000   		.zero	3
 411 019c 00000001 		.long	1
 412 01a0 00000003 		.long	3
 413 01a4 00000000 		.long	pkn_task_table+108
 414 01a8 00000000 		.long	pkn_periodic_records+28
 415 01ac 00000000 		.long	pkn_periodic_task_overrun_count+7
 416 01b0 01       		.byte	1
 417 01b1 000000   		.zero	3
 418 01b4 00000002 		.long	2
 419 01b8 0000000A 		.long	10
 420 01bc 00000000 		.long	pkn_task_table+120
 421 01c0 00000000 		.long	pkn_periodic_records+32
 422 01c4 00000000 		.long	pkn_periodic_task_overrun_count+8
 423 01c8 01       		.byte	1
 424 01c9 000000   		.zero	3
 425 01cc 00000000 		.long	0
 426 01d0 0000000A 		.long	10
 427 01d4 00000000 		.long	pkn_task_table+132
 428 01d8 00000000 		.long	pkn_periodic_records+36
 429 01dc 00000000 		.long	pkn_periodic_task_overrun_count+9
 430 01e0 01       		.byte	1
 431 01e1 000000   		.zero	3
 432 01e4 00000000 		.long	0
 433 01e8 00000064 		.long	100
 434 01ec 00000000 		.long	pkn_task_table+144
 435 01f0 00000000 		.long	pkn_periodic_records+40
 436 01f4 00000000 		.long	pkn_periodic_task_overrun_count+10
 437 01f8 01       		.byte	1
 438 01f9 000000   		.zero	3
 439 01fc 00000003 		.long	3
 440 0200 00000064 		.long	100
 441 0204 00000000 		.long	pkn_task_table+156
 442 0208 00000000 		.long	pkn_periodic_records+44
 443 020c 00000000 		.long	pkn_periodic_task_overrun_count+11
 444 0210 00       		.byte	0
 445 0211 000000   		.zero	3
 446 0214 00000003 		.long	3
 447 0218 00000002 		.long	2
 448 021c 00000000 		.long	pkn_task_table+168
 449 0220 00000000 		.long	pkn_periodic_records+48
 450 0224 00000000 		.long	pkn_periodic_task_overrun_count+12
 451 0228 01       		.byte	1
 452 0229 000000   		.zero	3
 453 022c 00000000 		.long	0
 454 0230 00000001 		.long	1
 455 0234 00000000 		.long	pkn_task_table+180
 456 0238 00000000 		.long	pkn_periodic_records+52
 457 023c 00000000 		.long	pkn_periodic_task_overrun_count+13
 458 0240 01       		.byte	1
 459 0241 000000   		.zero	3
 460 0244 00000000 		.long	0
 461 0248 000000C8 		.long	200
 462 024c 00000000 		.long	pkn_task_table+192
 463 0250 00000000 		.long	pkn_periodic_records+56
 464 0254 00000000 		.long	pkn_periodic_task_overrun_count+14
 465 0258 01       		.byte	1
 466 0259 000000   		.zero	3
 467 025c 00000006 		.long	6
 468 0260 00000005 		.long	5
 469 0264 00000000 		.long	pkn_task_table+204
 470              		.type	pkn_task_table, @object
 471              		.size	pkn_task_table, 228
 472              	pkn_task_table:
 473 0268 00000000 		.long	pss_task
 474 026c 80000000 		.long	-2147483648
 475 0270 FFFFFFFF 		.long	-1
 476 0274 00000000 		.long	pan_task
 477 0278 40000000 		.long	1073741824
 478 027c 7FFFFFFF 		.long	2147483647
 479 0280 00000000 		.long	pfc_task
 480 0284 20000000 		.long	536870912
 481 0288 3FFFFFFF 		.long	1073741823
 482 028c 00000000 		.long	psp_receive_task
 483 0290 10000000 		.long	268435456
 484 0294 1FFFFFFF 		.long	536870911
 485 0298 00000000 		.long	pcx_queue_emptier_task_sporadic
 486 029c 08000000 		.long	134217728
 487 02a0 0FFFFFFF 		.long	268435455
 488 02a4 00000000 		.long	pcx_can_callback_task
 489 02a8 04000000 		.long	67108864
 490 02ac 07FFFFFF 		.long	134217727
 491 02b0 00000000 		.long	pj1939_client_task
 492 02b4 02000000 		.long	33554432
 493 02b8 03FFFFFF 		.long	67108863
 494 02bc 00000000 		.long	pff_client_task
 495 02c0 01000000 		.long	16777216
 496 02c4 01FFFFFF 		.long	33554431
 497 02c8 00000000 		.long	pfs_client_task
 498 02cc 00800000 		.long	8388608
 499 02d0 00FFFFFF 		.long	16777215
 500 02d4 00000000 		.long	piso_client_task
 501 02d8 00400000 		.long	4194304
 502 02dc 007FFFFF 		.long	8388607
 503 02e0 00000000 		.long	pdg_client_task
 504 02e4 00200000 		.long	2097152
 505 02e8 003FFFFF 		.long	4194303
 506 02ec 00000000 		.long	task_10ms
 507 02f0 00100000 		.long	1048576
 508 02f4 001FFFFF 		.long	2097151
 509 02f8 00000000 		.long	task_100ms
 510 02fc 00080000 		.long	524288
 511 0300 000FFFFF 		.long	1048575
 512 0304 00000000 		.long	pdtc_client_task
 513 0308 00040000 		.long	262144
 514 030c 0007FFFF 		.long	524287
 515 0310 00000000 		.long	pcx_queue_emptier_task
 516 0314 00020000 		.long	131072
 517 0318 0003FFFF 		.long	262143
 518 031c 00000000 		.long	psp_periodic_task
 519 0320 00010000 		.long	65536
 520 0324 0001FFFF 		.long	131071
 521 0328 00000000 		.long	psc_watchdog_task
 522 032c 00008000 		.long	32768
 523 0330 0000FFFF 		.long	65535
 524 0334 00000000 		.long	pcp_client_task
 525 0338 00004000 		.long	16384
 526 033c 00007FFF 		.long	32767
 527 0340 00000000 		.long	psc_force_box_reset
 528 0344 00002000 		.long	8192
 529 0348 00003FFF 		.long	16383
 530              		.type	psc_app_build_str, @object
 531              		.size	psc_app_build_str, 27
 532              	psc_app_build_str:
 533 034c 53756E2C 		.string	"Sun, 31 May 2020, 18:33:58"
 533      20333120 
 533      4D617920 
 533      32303230 
 533      2C203138 
 534 0367 00       		.zero	1
 535              		.type	psc_app_name, @object
 536              		.size	psc_app_name, 11
 537              	psc_app_name:
 538 0368 4D504320 		.string	"MPC Design"
 538      44657369 
 538      676E00
 539              		.section	.dtcs,"aw",@progbits
 540              		.align 2
 541              		.type	pdtc_nv_counters, @object
 542              		.size	pdtc_nv_counters, 16
 543              	pdtc_nv_counters:
 544 0000 00000000 		.zero	16
 544      00000000 
 544      00000000 
 544      00000000 
 545              		.type	pdtc_first_last_record, @object
 546              		.size	pdtc_first_last_record, 32
 547              	pdtc_first_last_record:
 548 0010 00000000 		.zero	32
 548      00000000 
 548      00000000 
 548      00000000 
 548      00000000 
 549              		.section	.bss_stack,"aw",@progbits
 550              		.align 2
 551              		.type	psc_system_stack, @object
 552              		.size	psc_system_stack, 8192
 553              	psc_system_stack:
 554 0000 00000000 		.zero	8192
 554      00000000 
 554      00000000 
 554      00000000 
 554      00000000 
 555              		.section	.cal_header_sec,"aw",@progbits
 556              		.align 2
 557              		.type	psc_calibration_header, @object
 558              		.size	psc_calibration_header, 1024
 559              	psc_calibration_header:
 560 0000 00000000 		.zero	1024
 560      00000000 
 560      00000000 
 560      00000000 
 560      00000000 
 561              		.section	.sdata,"aw",@progbits
 562              		.align 2
 563              		.type	pff_uds_ffno_fid_map, @object
 564              		.size	pff_uds_ffno_fid_map, 1
 565              	pff_uds_ffno_fid_map:
 566 0000 FF       		.byte	-1
 567 0001 000000   		.zero	3
 568              		.type	pff_exp_ffno_fid_map, @object
 569              		.size	pff_exp_ffno_fid_map, 1
 570              	pff_exp_ffno_fid_map:
 571 0004 FF       		.byte	-1
 572 0005 000000   		.zero	3
 573              		.type	pff_std_ffno_fid_map, @object
 574              		.size	pff_std_ffno_fid_map, 1
 575              	pff_std_ffno_fid_map:
 576 0008 FF       		.byte	-1
 577 0009 000000   		.zero	3
 578              		.type	pff_iso_ffno_fid_map, @object
 579              		.size	pff_iso_ffno_fid_map, 1
 580              	pff_iso_ffno_fid_map:
 581 000c FF       		.byte	-1
 582 000d 000000   		.zero	3
 583              		.type	pj1939_mem_sec_reprog_cal, @object
 584              		.size	pj1939_mem_sec_reprog_cal, 4
 585              	pj1939_mem_sec_reprog_cal:
 586 0010 00000000 		.long	svcc_ecu_reprog_seedkey_cal
 587              		.type	pj1939_mem_sec_config_cal, @object
 588              		.size	pj1939_mem_sec_config_cal, 4
 589              	pj1939_mem_sec_config_cal:
 590 0014 00000000 		.long	svcc_ecu_config_seedkey_cal
 591              		.type	node_addr, @object
 592              		.size	node_addr, 2
 593              	node_addr:
 594 0018 00       		.byte	0
 595 0019 FF       		.byte	-1
 596              		.section	.sbss,"aw",@nobits
 597              		.align 2
 598              		.type	pj1939_transient, @object
 599              		.size	pj1939_transient, 1
 600              	pj1939_transient:
 601 0000 00       		.zero	1
 602 0001 000000   		.zero	3
 603              		.type	pj1939_sent, @object
 604              		.size	pj1939_sent, 1
 605              	pj1939_sent:
 606 0004 00       		.zero	1
 607 0005 000000   		.zero	3
 608              		.type	pj1939_state, @object
 609              		.size	pj1939_state, 1
 610              	pj1939_state:
 611 0008 00       		.zero	1
 612 0009 000000   		.zero	3
 613              		.type	pff_dtc_sev_and_ff_idx_list, @object
 614              		.size	pff_dtc_sev_and_ff_idx_list, 8
 615              	pff_dtc_sev_and_ff_idx_list:
 616 000c 00000000 		.zero	8
 616      00000000 
 617              		.type	pff_data_holding, @object
 618              		.size	pff_data_holding, 1
 619              	pff_data_holding:
 620 0014 00       		.zero	1
 621 0015 000000   		.zero	3
 622              		.type	ppid_nv_buffer, @object
 623              		.size	ppid_nv_buffer, 1
 624              	ppid_nv_buffer:
 625 0018 00       		.zero	1
 626 0019 000000   		.zero	3
 627              		.type	pdg_pdid_pool_data_array, @object
 628              		.size	pdg_pdid_pool_data_array, 1
 629              	pdg_pdid_pool_data_array:
 630 001c 00       		.zero	1
 631 001d 000000   		.zero	3
 632              		.type	pdg_ddid_pool_data_array, @object
 633              		.size	pdg_ddid_pool_data_array, 1
 634              	pdg_ddid_pool_data_array:
 635 0020 00       		.zero	1
 636 0021 000000   		.zero	3
 637              		.type	pdg_iso_rx_buffer, @object
 638              		.size	pdg_iso_rx_buffer, 1
 639              	pdg_iso_rx_buffer:
 640 0024 00       		.zero	1
 641 0025 000000   		.zero	3
 642              		.type	pdg_iso_tx_buffer, @object
 643              		.size	pdg_iso_tx_buffer, 1
 644              	pdg_iso_tx_buffer:
 645 0028 00       		.zero	1
 646 0029 000000   		.zero	3
 647              		.type	pj1939_dm2_rx_counters, @object
 648              		.size	pj1939_dm2_rx_counters, 4
 649              	pj1939_dm2_rx_counters:
 650 002c 00000000 		.zero	4
 651              		.type	pj1939_dm1_rx_counters, @object
 652              		.size	pj1939_dm1_rx_counters, 4
 653              	pj1939_dm1_rx_counters:
 654 0030 00000000 		.zero	4
 655              		.type	pj1939_ttx_error_ptr, @object
 656              		.size	pj1939_ttx_error_ptr, 4
 657              	pj1939_ttx_error_ptr:
 658 0034 00000000 		.zero	4
 659              		.type	pj1939_req_test_list, @object
 660              		.size	pj1939_req_test_list, 8
 661              	pj1939_req_test_list:
 662 0038 00000000 		.zero	8
 662      00000000 
 663              		.type	pj1939_rx_buf_data_size, @object
 664              		.size	pj1939_rx_buf_data_size, 2
 665              	pj1939_rx_buf_data_size:
 666 0040 0000     		.zero	2
 667 0042 0000     		.zero	2
 668              		.type	pj1939_pgn_requested_bitmap, @object
 669              		.size	pj1939_pgn_requested_bitmap, 1
 670              	pj1939_pgn_requested_bitmap:
 671 0044 00       		.zero	1
 672 0045 000000   		.zero	3
 673              		.type	pj1939_pgn_requested_timestamp, @object
 674              		.size	pj1939_pgn_requested_timestamp, 4
 675              	pj1939_pgn_requested_timestamp:
 676 0048 00000000 		.zero	4
 677              		.type	pj1939_pgn_requested_dest_addr, @object
 678              		.size	pj1939_pgn_requested_dest_addr, 1
 679              	pj1939_pgn_requested_dest_addr:
 680 004c 00       		.zero	1
 681 004d 000000   		.zero	3
 682              		.type	pj1939_pgn_requested_src_addr, @object
 683              		.size	pj1939_pgn_requested_src_addr, 1
 684              	pj1939_pgn_requested_src_addr:
 685 0050 00       		.zero	1
 686 0051 00       		.zero	1
 687              		.type	pcx_sorted_rx_msg, @object
 688              		.size	pcx_sorted_rx_msg, 4
 689              	pcx_sorted_rx_msg:
 690 0052 00000000 		.zero	4
 691              		.section	.sdata2,"a",@progbits
 692              		.align 2
 693              		.type	ptpu_override_sdm_allocation, @object
 694              		.size	ptpu_override_sdm_allocation, 1
 695              	ptpu_override_sdm_allocation:
 696 0000 00       		.zero	1
 697 0001 00       		.zero	1
 698              		.type	pj1939_num_st_ds_spns, @object
 699              		.size	pj1939_num_st_ds_spns, 2
 700              	pj1939_num_st_ds_spns:
 701 0002 0000     		.zero	2
 702              		.type	pj1939_st_ds_spns_list, @object
 703              		.size	pj1939_st_ds_spns_list, 8
 704              	pj1939_st_ds_spns_list:
 705 0004 000000FF 		.long	255
 706 0008 00       		.byte	0
 707 0009 000000   		.zero	3
 708              		.type	pdtc_table_list, @object
 709              		.size	pdtc_table_list, 4
 710              	pdtc_table_list:
 711 000c 00000000 		.zero	4
 712              		.type	pdtc_num_dtc_tables, @object
 713              		.size	pdtc_num_dtc_tables, 2
 714              	pdtc_num_dtc_tables:
 715 0010 0000     		.zero	2
 716 0012 0000     		.zero	2
 717              		.type	pdtc_dtcs_for_table_all, @object
 718              		.size	pdtc_dtcs_for_table_all, 4
 719              	pdtc_dtcs_for_table_all:
 720 0014 00000000 		.zero	4
 721              		.type	pdtc_transition_prev_act_to_pend, @object
 722              		.size	pdtc_transition_prev_act_to_pend, 1
 723              	pdtc_transition_prev_act_to_pend:
 724 0018 01       		.byte	1
 725              		.type	pdtc_lamp_flashing_is_priority, @object
 726              		.size	pdtc_lamp_flashing_is_priority, 1
 727              	pdtc_lamp_flashing_is_priority:
 728 0019 00       		.zero	1
 729              		.type	pdtc_store, @object
 730              		.size	pdtc_store, 1
 731              	pdtc_store:
 732 001a 01       		.byte	1
 733              		.type	psc_mem_runtime_checks_enabled, @object
 734              		.size	psc_mem_runtime_checks_enabled, 1
 735              	psc_mem_runtime_checks_enabled:
 736 001b 01       		.byte	1
 737              		.type	psc_watchdog_task_enabled, @object
 738              		.size	psc_watchdog_task_enabled, 1
 739              	psc_watchdog_task_enabled:
 740 001c 01       		.byte	1
 741              		.type	pcp_security_dev_mode, @object
 742              		.size	pcp_security_dev_mode, 1
 743              	pcp_security_dev_mode:
 744 001d 00       		.zero	1
 745              		.type	pcp_num_seed_key_files, @object
 746              		.size	pcp_num_seed_key_files, 1
 747              	pcp_num_seed_key_files:
 748 001e 01       		.byte	1
 749              		.type	pcp_num_seed_key_configs, @object
 750              		.size	pcp_num_seed_key_configs, 1
 751              	pcp_num_seed_key_configs:
 752 001f 01       		.byte	1
 753              		.type	ccp_num_odts, @object
 754              		.size	ccp_num_odts, 1
 755              	ccp_num_odts:
 756 0020 3C       		.byte	60
 757              		.type	ccp_num_daqs, @object
 758              		.size	ccp_num_daqs, 1
 759              	ccp_num_daqs:
 760 0021 04       		.byte	4
 761 0022 0000     		.zero	2
 762              		.type	ccp_first_odt, @object
 763              		.size	ccp_first_odt, 4
 764              	ccp_first_odt:
 765 0024 00       		.byte	0
 766 0025 0F       		.byte	15
 767 0026 1E       		.byte	30
 768 0027 2D       		.byte	45
 769              		.type	ccp_daq_size, @object
 770              		.size	ccp_daq_size, 4
 771              	ccp_daq_size:
 772 0028 0F       		.byte	15
 773 0029 0F       		.byte	15
 774 002a 0F       		.byte	15
 775 002b 0F       		.byte	15
 776              		.type	pcp_ccpenabled, @object
 777              		.size	pcp_ccpenabled, 1
 778              	pcp_ccpenabled:
 779 002c 01       		.byte	1
 780 002d 00       		.zero	1
 781              		.type	pfs_max_num_platform_files, @object
 782              		.size	pfs_max_num_platform_files, 2
 783              	pfs_max_num_platform_files:
 784 002e 0014     		.short	20
 785              		.type	pfs_max_num_user_files, @object
 786              		.size	pfs_max_num_user_files, 2
 787              	pfs_max_num_user_files:
 788 0030 0000     		.zero	2
 789              		.type	pfs_write_queue_size, @object
 790              		.size	pfs_write_queue_size, 2
 791              	pfs_write_queue_size:
 792 0032 0011     		.short	17
 793              		.type	ppr_num_dme, @object
 794              		.size	ppr_num_dme, 2
 795              	ppr_num_dme:
 796 0034 0000     		.zero	2
 797              		.type	ppr_num_dte, @object
 798              		.size	ppr_num_dte, 2
 799              	ppr_num_dte:
 800 0036 0000     		.zero	2
 801              		.type	ppr_store, @object
 802              		.size	ppr_store, 1
 803              	ppr_store:
 804 0038 01       		.byte	1
 805              		.type	pff_dtc_sev_overrides_ff_age, @object
 806              		.size	pff_dtc_sev_overrides_ff_age, 1
 807              	pff_dtc_sev_overrides_ff_age:
 808 0039 00       		.zero	1
 809 003a 0000     		.zero	2
 810              		.type	pff_dm25_spn_set_ptr, @object
 811              		.size	pff_dm25_spn_set_ptr, 4
 812              	pff_dm25_spn_set_ptr:
 813 003c 00000000 		.zero	4
 814              		.type	pff_num_dm25_spns, @object
 815              		.size	pff_num_dm25_spns, 1
 816              	pff_num_dm25_spns:
 817 0040 00       		.zero	1
 818 0041 000000   		.zero	3
 819              		.type	pff_app_max_num_files, @object
 820              		.size	pff_app_max_num_files, 4
 821              	pff_app_max_num_files:
 822 0044 00000000 		.zero	4
 823              		.type	pff_max_nvm, @object
 824              		.size	pff_max_nvm, 2
 825              	pff_max_nvm:
 826 0048 0000     		.zero	2
 827              		.type	pff_data_holding_size, @object
 828              		.size	pff_data_holding_size, 2
 829              	pff_data_holding_size:
 830 004a 0000     		.zero	2
 831              		.type	pdg_num_routines, @object
 832              		.size	pdg_num_routines, 2
 833              	pdg_num_routines:
 834 004c 0000     		.zero	2
 835              		.type	ppid_allow_only_app_nv, @object
 836              		.size	ppid_allow_only_app_nv, 1
 837              	ppid_allow_only_app_nv:
 838 004e 01       		.byte	1
 839 004f 00       		.zero	1
 840              		.type	ppid_nv_buffer_size, @object
 841              		.size	ppid_nv_buffer_size, 2
 842              	ppid_nv_buffer_size:
 843 0050 0001     		.short	1
 844              		.type	ppid_num_app_nv_pids, @object
 845              		.size	ppid_num_app_nv_pids, 1
 846              	ppid_num_app_nv_pids:
 847 0052 00       		.zero	1
 848 0053 00       		.zero	1
 849              		.type	ppid_num_j1939_spns, @object
 850              		.size	ppid_num_j1939_spns, 2
 851              	ppid_num_j1939_spns:
 852 0054 0000     		.zero	2
 853 0056 0000     		.zero	2
 854              		.type	ppid_j1939_spn_map, @object
 855              		.size	ppid_j1939_spn_map, 8
 856              	ppid_j1939_spn_map:
 857 0058 00000000 		.zero	8
 857      00000000 
 858              		.type	ppid_num_kwp_ids, @object
 859              		.size	ppid_num_kwp_ids, 2
 860              	ppid_num_kwp_ids:
 861 0060 0000     		.zero	2
 862 0062 0000     		.zero	2
 863              		.type	ppid_kwp_8bit_map, @object
 864              		.size	ppid_kwp_8bit_map, 8
 865              	ppid_kwp_8bit_map:
 866 0064 00000000 		.zero	8
 866      00000000 
 867              		.type	ppid_num_j1979_ids, @object
 868              		.size	ppid_num_j1979_ids, 2
 869              	ppid_num_j1979_ids:
 870 006c 0000     		.zero	2
 871 006e 0000     		.zero	2
 872              		.type	ppid_j1979_8bit_map, @object
 873              		.size	ppid_j1979_8bit_map, 8
 874              	ppid_j1979_8bit_map:
 875 0070 00000000 		.zero	8
 875      00000000 
 876              		.type	ppid_num_pids, @object
 877              		.size	ppid_num_pids, 2
 878              	ppid_num_pids:
 879 0078 0000     		.zero	2
 880              		.type	pdg_pdid_pool_num_bytes, @object
 881              		.size	pdg_pdid_pool_num_bytes, 2
 882              	pdg_pdid_pool_num_bytes:
 883 007a 0000     		.zero	2
 884              		.type	pdg_ddid_pool_num_bytes, @object
 885              		.size	pdg_ddid_pool_num_bytes, 2
 886              	pdg_ddid_pool_num_bytes:
 887 007c 0000     		.zero	2
 888              		.type	pdg_pdid_base_period, @object
 889              		.size	pdg_pdid_base_period, 2
 890              	pdg_pdid_base_period:
 891 007e 03E8     		.short	1000
 892              		.type	pdg_extd_data_rec_num, @object
 893              		.size	pdg_extd_data_rec_num, 8
 894              	pdg_extd_data_rec_num:
 895 0080 00000000 		.zero	8
 895      00000000 
 896              		.type	pdg_iso_rx_buffer_size, @object
 897              		.size	pdg_iso_rx_buffer_size, 2
 898              	pdg_iso_rx_buffer_size:
 899 0088 0001     		.short	1
 900              		.type	pdg_active_session_kwp_8bit_id, @object
 901              		.size	pdg_active_session_kwp_8bit_id, 1
 902              	pdg_active_session_kwp_8bit_id:
 903 008a 00       		.zero	1
 904              		.type	pdg_active_session_has_id8, @object
 905              		.size	pdg_active_session_has_id8, 1
 906              	pdg_active_session_has_id8:
 907 008b 00       		.zero	1
 908              		.type	pdg_active_session_iso_16bit_id, @object
 909              		.size	pdg_active_session_iso_16bit_id, 2
 910              	pdg_active_session_iso_16bit_id:
 911 008c 0000     		.zero	2
 912              		.type	pdg_active_session_has_id16, @object
 913              		.size	pdg_active_session_has_id16, 1
 914              	pdg_active_session_has_id16:
 915 008e 00       		.zero	1
 916              		.type	pdg_mem_read_needs_security, @object
 917              		.size	pdg_mem_read_needs_security, 1
 918              	pdg_mem_read_needs_security:
 919 008f 00       		.zero	1
 920              		.type	pdg_mem_read_ok_prog_session, @object
 921              		.size	pdg_mem_read_ok_prog_session, 1
 922              	pdg_mem_read_ok_prog_session:
 923 0090 00       		.zero	1
 924              		.type	pdg_mem_read_ok_extd_session, @object
 925              		.size	pdg_mem_read_ok_extd_session, 1
 926              	pdg_mem_read_ok_extd_session:
 927 0091 00       		.zero	1
 928              		.type	pdg_mem_read_ok_def_session, @object
 929              		.size	pdg_mem_read_ok_def_session, 1
 930              	pdg_mem_read_ok_def_session:
 931 0092 00       		.zero	1
 932 0093 00       		.zero	1
 933              		.type	pdg_specific_mem_read_security_level, @object
 934              		.size	pdg_specific_mem_read_security_level, 1
 935              	pdg_specific_mem_read_security_level:
 936 0094 00       		.zero	1
 937              		.type	pdg_num_mem_read_security_levels, @object
 938              		.size	pdg_num_mem_read_security_levels, 1
 939              	pdg_num_mem_read_security_levels:
 940 0095 00       		.zero	1
 941 0096 0000     		.zero	2
 942              		.type	pdg_specific_flash_security_level, @object
 943              		.size	pdg_specific_flash_security_level, 1
 944              	pdg_specific_flash_security_level:
 945 0098 00       		.zero	1
 946              		.type	pdg_num_flash_security_levels, @object
 947              		.size	pdg_num_flash_security_levels, 1
 948              	pdg_num_flash_security_levels:
 949 0099 00       		.zero	1
 950 009a 0000     		.zero	2
 951              		.type	pdg_security_mem_read_allowed_option, @object
 952              		.size	pdg_security_mem_read_allowed_option, 4
 953              	pdg_security_mem_read_allowed_option:
 954 009c 00000003 		.long	3
 955              		.type	pdg_security_flash_allowed_option, @object
 956              		.size	pdg_security_flash_allowed_option, 4
 957              	pdg_security_flash_allowed_option:
 958 00a0 00000003 		.long	3
 959              		.type	pdg_security_end_ptr, @object
 960              		.size	pdg_security_end_ptr, 4
 961              	pdg_security_end_ptr:
 962 00a4 00000000 		.zero	4
 963              		.type	pdg_security_callback_ptr, @object
 964              		.size	pdg_security_callback_ptr, 4
 965              	pdg_security_callback_ptr:
 966 00a8 00000000 		.zero	4
 967              		.type	pdg_id_request_callback_ptr, @object
 968              		.size	pdg_id_request_callback_ptr, 4
 969              	pdg_id_request_callback_ptr:
 970 00ac 00000000 		.zero	4
 971              		.type	pdg_general_callback_ptr, @object
 972              		.size	pdg_general_callback_ptr, 4
 973              	pdg_general_callback_ptr:
 974 00b0 00000000 		.zero	4
 975              		.type	pdg_iso_tx_buffer_size, @object
 976              		.size	pdg_iso_tx_buffer_size, 2
 977              	pdg_iso_tx_buffer_size:
 978 00b4 0001     		.short	1
 979              		.type	pdg_enabled, @object
 980              		.size	pdg_enabled, 1
 981              	pdg_enabled:
 982 00b6 00       		.zero	1
 983              		.type	pj1939_num_aecd, @object
 984              		.size	pj1939_num_aecd, 1
 985              	pj1939_num_aecd:
 986 00b7 00       		.zero	1
 987              		.type	pj1939_aecd_table, @object
 988              		.size	pj1939_aecd_table, 4
 989              	pj1939_aecd_table:
 990 00b8 00000000 		.zero	4
 991              		.type	pj1939_dm2_rx_buf, @object
 992              		.size	pj1939_dm2_rx_buf, 4
 993              	pj1939_dm2_rx_buf:
 994 00bc 00000000 		.zero	4
 995              		.type	pj1939_dm2_rx_buf_data, @object
 996              		.size	pj1939_dm2_rx_buf_data, 4
 997              	pj1939_dm2_rx_buf_data:
 998 00c0 00000000 		.zero	4
 999              		.type	pj1939_dm2_source_addr, @object
 1000              		.size	pj1939_dm2_source_addr, 1
 1001              	pj1939_dm2_source_addr:
 1002 00c4 00       		.zero	1
 1003              		.type	pj1939_dm2_source_addr_num, @object
 1004              		.size	pj1939_dm2_source_addr_num, 1
 1005              	pj1939_dm2_source_addr_num:
 1006 00c5 00       		.zero	1
 1007 00c6 0000     		.zero	2
 1008              		.type	pj1939_dm1_rx_buf, @object
 1009              		.size	pj1939_dm1_rx_buf, 4
 1010              	pj1939_dm1_rx_buf:
 1011 00c8 00000000 		.zero	4
 1012              		.type	pj1939_dm1_rx_buf_data, @object
 1013              		.size	pj1939_dm1_rx_buf_data, 4
 1014              	pj1939_dm1_rx_buf_data:
 1015 00cc 00000000 		.zero	4
 1016              		.type	pj1939_dm1_source_addr, @object
 1017              		.size	pj1939_dm1_source_addr, 1
 1018              	pj1939_dm1_source_addr:
 1019 00d0 00       		.zero	1
 1020              		.type	pj1939_dm1_source_addr_num, @object
 1021              		.size	pj1939_dm1_source_addr_num, 1
 1022              	pj1939_dm1_source_addr_num:
 1023 00d1 00       		.zero	1
 1024              		.type	pj1939_common_multiframe_priority, @object
 1025              		.size	pj1939_common_multiframe_priority, 1
 1026              	pj1939_common_multiframe_priority:
 1027 00d2 07       		.byte	7
 1028              		.type	pj1939_use_common_mf_priority, @object
 1029              		.size	pj1939_use_common_mf_priority, 1
 1030              	pj1939_use_common_mf_priority:
 1031 00d3 00       		.zero	1
 1032              		.type	pj1939_dm7_request_buf_size, @object
 1033              		.size	pj1939_dm7_request_buf_size, 1
 1034              	pj1939_dm7_request_buf_size:
 1035 00d4 01       		.byte	1
 1036              		.type	pj1939_num_rx_tx_bufs, @object
 1037              		.size	pj1939_num_rx_tx_bufs, 1
 1038              	pj1939_num_rx_tx_bufs:
 1039 00d5 01       		.byte	1
 1040              		.type	pj1939_size_j1939_rx_buf, @object
 1041              		.size	pj1939_size_j1939_rx_buf, 2
 1042              	pj1939_size_j1939_rx_buf:
 1043 00d6 06F9     		.short	1785
 1044              		.type	pj1939_num_trx, @object
 1045              		.size	pj1939_num_trx, 1
 1046              	pj1939_num_trx:
 1047 00d8 01       		.byte	1
 1048              		.type	pj1939_num_ttx, @object
 1049              		.size	pj1939_num_ttx, 1
 1050              	pj1939_num_ttx:
 1051 00d9 01       		.byte	1
 1052              		.type	pj1939_can_link, @object
 1053              		.size	pj1939_can_link, 1
 1054              	pj1939_can_link:
 1055 00da 00       		.zero	1
 1056 00db 00       		.zero	1
 1057              		.type	pj1939_rx_buf, @object
 1058              		.size	pj1939_rx_buf, 4
 1059              	pj1939_rx_buf:
 1060 00dc 00000000 		.zero	4
 1061              		.type	pj1939_rx_buf_data, @object
 1062              		.size	pj1939_rx_buf_data, 4
 1063              	pj1939_rx_buf_data:
 1064 00e0 00000000 		.zero	4
 1065              		.type	pj1939_num_requested_pgns, @object
 1066              		.size	pj1939_num_requested_pgns, 4
 1067              	pj1939_num_requested_pgns:
 1068 00e4 00000000 		.zero	4
 1069              		.type	pj1939_pgn_requested_table, @object
 1070              		.size	pj1939_pgn_requested_table, 4
 1071              	pj1939_pgn_requested_table:
 1072 00e8 00000000 		.zero	4
 1073              		.type	pj1939_num_pgns, @object
 1074              		.size	pj1939_num_pgns, 4
 1075              	pj1939_num_pgns:
 1076 00ec 00000000 		.zero	4
 1077              		.type	_pgn_table, @object
 1078              		.size	_pgn_table, 4
 1079              	_pgn_table:
 1080 00f0 00000000 		.zero	4
 1081              		.type	pj1939_num_node_addr, @object
 1082              		.size	pj1939_num_node_addr, 1
 1083              	pj1939_num_node_addr:
 1084 00f4 02       		.byte	2
 1085 00f5 000000   		.zero	3
 1086              		.type	name, @object
 1087              		.size	name, 8
 1088              	name:
 1089 00f8 00000000 		.zero	8
 1089      00000000 
 1090              		.type	pj1939_enabled, @object
 1091              		.size	pj1939_enabled, 1
 1092              	pj1939_enabled:
 1093 0100 00       		.zero	1
 1094 0101 00       		.zero	1
 1095              		.type	pcx_tot_allow_msg_rx, @object
 1096              		.size	pcx_tot_allow_msg_rx, 2
 1097              	pcx_tot_allow_msg_rx:
 1098 0102 0002     		.short	2
 1099              		.type	pcx_tot_allow_msg_tx, @object
 1100              		.size	pcx_tot_allow_msg_tx, 2
 1101              	pcx_tot_allow_msg_tx:
 1102 0104 0002     		.short	2
 1103 0106 0000     		.zero	2
 1104              		.type	pkn_pff_buff_r_hdl, @object
 1105              		.size	pkn_pff_buff_r_hdl, 4
 1106              	pkn_pff_buff_r_hdl:
 1107 0108 00000000 		.long	pkn_resource_table+60
 1108              		.type	pkn_pfs_structs_r_hdl, @object
 1109              		.size	pkn_pfs_structs_r_hdl, 4
 1110              	pkn_pfs_structs_r_hdl:
 1111 010c 00000000 		.long	pkn_resource_table+48
 1112              		.type	pkn_ppid_buf_r_hdl, @object
 1113              		.size	pkn_ppid_buf_r_hdl, 4
 1114              	pkn_ppid_buf_r_hdl:
 1115 0110 00000000 		.long	pkn_resource_table+36
 1116              		.type	pkn_j1939_buf_r_hdl, @object
 1117              		.size	pkn_j1939_buf_r_hdl, 4
 1118              	pkn_j1939_buf_r_hdl:
 1119 0114 00000000 		.long	pkn_resource_table+24
 1120              		.type	pkn_can_queues_r_hdl, @object
 1121              		.size	pkn_can_queues_r_hdl, 4
 1122              	pkn_can_queues_r_hdl:
 1123 0118 00000000 		.long	pkn_resource_table+12
 1124              		.type	pkn_psp_logical_queues_r_hdl, @object
 1125              		.size	pkn_psp_logical_queues_r_hdl, 4
 1126              	pkn_psp_logical_queues_r_hdl:
 1127 011c 00000000 		.long	pkn_resource_table
 1128              		.type	pkn_pcp_client_periodic_hdl, @object
 1129              		.size	pkn_pcp_client_periodic_hdl, 4
 1130              	pkn_pcp_client_periodic_hdl:
 1131 0120 00000000 		.long	pkn_periodic_task_table+336
 1132              		.type	pkn_psc_watchdog_periodic_hdl, @object
 1133              		.size	pkn_psc_watchdog_periodic_hdl, 4
 1134              	pkn_psc_watchdog_periodic_hdl:
 1135 0124 00000000 		.long	pkn_periodic_task_table+312
 1136              		.type	pkn_psp_periodic_periodic_hdl, @object
 1137              		.size	pkn_psp_periodic_periodic_hdl, 4
 1138              	pkn_psp_periodic_periodic_hdl:
 1139 0128 00000000 		.long	pkn_periodic_task_table+288
 1140              		.type	pkn_pcx_queue_emptier_periodic_hdl, @object
 1141              		.size	pkn_pcx_queue_emptier_periodic_hdl, 4
 1142              	pkn_pcx_queue_emptier_periodic_hdl:
 1143 012c 00000000 		.long	pkn_periodic_task_table+264
 1144              		.type	pkn_pdtc_client_task_periodic_hdl, @object
 1145              		.size	pkn_pdtc_client_task_periodic_hdl, 4
 1146              	pkn_pdtc_client_task_periodic_hdl:
 1147 0130 00000000 		.long	pkn_periodic_task_table+240
 1148              		.type	pkn_task_100ms_periodic_hdl, @object
 1149              		.size	pkn_task_100ms_periodic_hdl, 4
 1150              	pkn_task_100ms_periodic_hdl:
 1151 0134 00000000 		.long	pkn_periodic_task_table+216
 1152              		.type	pkn_task_10ms_periodic_hdl, @object
 1153              		.size	pkn_task_10ms_periodic_hdl, 4
 1154              	pkn_task_10ms_periodic_hdl:
 1155 0138 00000000 		.long	pkn_periodic_task_table+192
 1156              		.type	pkn_pdg_client_task_periodic_hdl, @object
 1157              		.size	pkn_pdg_client_task_periodic_hdl, 4
 1158              	pkn_pdg_client_task_periodic_hdl:
 1159 013c 00000000 		.long	pkn_periodic_task_table+168
 1160              		.type	pkn_piso_client_task_periodic_hdl, @object
 1161              		.size	pkn_piso_client_task_periodic_hdl, 4
 1162              	pkn_piso_client_task_periodic_hdl:
 1163 0140 00000000 		.long	pkn_periodic_task_table+144
 1164              		.type	pkn_pfs_client_periodic_hdl, @object
 1165              		.size	pkn_pfs_client_periodic_hdl, 4
 1166              	pkn_pfs_client_periodic_hdl:
 1167 0144 00000000 		.long	pkn_periodic_task_table+120
 1168              		.type	pkn_pff_client_periodic_hdl, @object
 1169              		.size	pkn_pff_client_periodic_hdl, 4
 1170              	pkn_pff_client_periodic_hdl:
 1171 0148 00000000 		.long	pkn_periodic_task_table+96
 1172              		.type	pkn_pj1939_client_periodic_hdl, @object
 1173              		.size	pkn_pj1939_client_periodic_hdl, 4
 1174              	pkn_pj1939_client_periodic_hdl:
 1175 014c 00000000 		.long	pkn_periodic_task_table+72
 1176              		.type	pkn_pcx_can_callback_periodic_hdl, @object
 1177              		.size	pkn_pcx_can_callback_periodic_hdl, 4
 1178              	pkn_pcx_can_callback_periodic_hdl:
 1179 0150 00000000 		.long	pkn_periodic_task_table+48
 1180              		.type	pkn_pfc_task_periodic_hdl, @object
 1181              		.size	pkn_pfc_task_periodic_hdl, 4
 1182              	pkn_pfc_task_periodic_hdl:
 1183 0154 00000000 		.long	pkn_periodic_task_table+24
 1184              		.type	pkn_pss_task_periodic_hdl, @object
 1185              		.size	pkn_pss_task_periodic_hdl, 4
 1186              	pkn_pss_task_periodic_hdl:
 1187 0158 00000000 		.long	pkn_periodic_task_table
 1188              		.type	pkn_angular_model_task_hdl, @object
 1189              		.size	pkn_angular_model_task_hdl, 4
 1190              	pkn_angular_model_task_hdl:
 1191 015c 00000000 		.zero	4
 1192              		.type	pkn_pcp_client_task_hdl, @object
 1193              		.size	pkn_pcp_client_task_hdl, 4
 1194              	pkn_pcp_client_task_hdl:
 1195 0160 00000000 		.long	pkn_task_table+204
 1196              		.type	pkn_psc_watchdog_task_hdl, @object
 1197              		.size	pkn_psc_watchdog_task_hdl, 4
 1198              	pkn_psc_watchdog_task_hdl:
 1199 0164 00000000 		.long	pkn_task_table+192
 1200              		.type	pkn_psp_periodic_task_hdl, @object
 1201              		.size	pkn_psp_periodic_task_hdl, 4
 1202              	pkn_psp_periodic_task_hdl:
 1203 0168 00000000 		.long	pkn_task_table+180
 1204              		.type	pkn_pcx_queue_emptier_task_hdl, @object
 1205              		.size	pkn_pcx_queue_emptier_task_hdl, 4
 1206              	pkn_pcx_queue_emptier_task_hdl:
 1207 016c 00000000 		.long	pkn_task_table+168
 1208              		.type	pkn_pdtc_client_task_task_hdl, @object
 1209              		.size	pkn_pdtc_client_task_task_hdl, 4
 1210              	pkn_pdtc_client_task_task_hdl:
 1211 0170 00000000 		.long	pkn_task_table+156
 1212              		.type	pkn_task_100ms_task_hdl, @object
 1213              		.size	pkn_task_100ms_task_hdl, 4
 1214              	pkn_task_100ms_task_hdl:
 1215 0174 00000000 		.long	pkn_task_table+144
 1216              		.type	pkn_task_10ms_task_hdl, @object
 1217              		.size	pkn_task_10ms_task_hdl, 4
 1218              	pkn_task_10ms_task_hdl:
 1219 0178 00000000 		.long	pkn_task_table+132
 1220              		.type	pkn_pdg_client_task_task_hdl, @object
 1221              		.size	pkn_pdg_client_task_task_hdl, 4
 1222              	pkn_pdg_client_task_task_hdl:
 1223 017c 00000000 		.long	pkn_task_table+120
 1224              		.type	pkn_piso_client_task_task_hdl, @object
 1225              		.size	pkn_piso_client_task_task_hdl, 4
 1226              	pkn_piso_client_task_task_hdl:
 1227 0180 00000000 		.long	pkn_task_table+108
 1228              		.type	pkn_pfs_client_task_hdl, @object
 1229              		.size	pkn_pfs_client_task_hdl, 4
 1230              	pkn_pfs_client_task_hdl:
 1231 0184 00000000 		.long	pkn_task_table+96
 1232              		.type	pkn_pff_client_task_hdl, @object
 1233              		.size	pkn_pff_client_task_hdl, 4
 1234              	pkn_pff_client_task_hdl:
 1235 0188 00000000 		.long	pkn_task_table+84
 1236              		.type	pkn_pj1939_client_task_hdl, @object
 1237              		.size	pkn_pj1939_client_task_hdl, 4
 1238              	pkn_pj1939_client_task_hdl:
 1239 018c 00000000 		.long	pkn_task_table+72
 1240              		.type	pkn_pcx_can_callback_task_hdl, @object
 1241              		.size	pkn_pcx_can_callback_task_hdl, 4
 1242              	pkn_pcx_can_callback_task_hdl:
 1243 0190 00000000 		.long	pkn_task_table+60
 1244              		.type	pkn_pcx_queue_emptier_sporadic_task_hdl, @object
 1245              		.size	pkn_pcx_queue_emptier_sporadic_task_hdl, 4
 1246              	pkn_pcx_queue_emptier_sporadic_task_hdl:
 1247 0194 00000000 		.long	pkn_task_table+48
 1248              		.type	pkn_psp_receive_task_hdl, @object
 1249              		.size	pkn_psp_receive_task_hdl, 4
 1250              	pkn_psp_receive_task_hdl:
 1251 0198 00000000 		.long	pkn_task_table+36
 1252              		.type	pkn_pfc_task_task_hdl, @object
 1253              		.size	pkn_pfc_task_task_hdl, 4
 1254              	pkn_pfc_task_task_hdl:
 1255 019c 00000000 		.long	pkn_task_table+24
 1256              		.type	pkn_pan_task_task_hdl, @object
 1257              		.size	pkn_pan_task_task_hdl, 4
 1258              	pkn_pan_task_task_hdl:
 1259 01a0 00000000 		.long	pkn_task_table+12
 1260              		.type	pkn_pss_task_task_hdl, @object
 1261              		.size	pkn_pss_task_task_hdl, 4
 1262              	pkn_pss_task_task_hdl:
 1263 01a4 00000000 		.long	pkn_task_table
 1264              		.type	pkn_num_resources, @object
 1265              		.size	pkn_num_resources, 4
 1266              	pkn_num_resources:
 1267 01a8 00000006 		.long	6
 1268              		.type	pkn_num_periodic_tasks, @object
 1269              		.size	pkn_num_periodic_tasks, 4
 1270              	pkn_num_periodic_tasks:
 1271 01ac 0000000F 		.long	15
 1272              		.type	pkn_num_tasks, @object
 1273              		.size	pkn_num_tasks, 4
 1274              	pkn_num_tasks:
 1275 01b0 00000013 		.long	19
 1276              		.type	pnv_store, @object
 1277              		.size	pnv_store, 1
 1278              	pnv_store:
 1279 01b4 01       		.byte	1
 1280 01b5 000000   		.zero	3
 1281              		.type	pmem_memory_configuration_option, @object
 1282              		.size	pmem_memory_configuration_option, 4
 1283              	pmem_memory_configuration_option:
 1284 01b8 00000000 		.zero	4
 1285              		.type	psc_app_ver, @object
 1286              		.size	psc_app_ver, 6
 1287              	psc_app_ver:
 1288 01bc 312E302E 		.string	"1.0.0"
 1288      3000
 1289 01c2 0000     		.zero	2
 1290              		.type	psc_app_desc, @object
 1291              		.size	psc_app_desc, 7
 1292              	psc_app_desc:
 1293 01c4 286E6F6E 		.string	"(none)"
 1293      652900
 1294 01cb 00       		.zero	1
 1295              		.type	psc_app_copyright, @object
 1296              		.size	psc_app_copyright, 7
 1297              	psc_app_copyright:
 1298 01cc 286E6F6E 		.string	"(none)"
 1298      652900
 1299 01d3 00       		.zero	1
 1300              		.type	psc_app_sub_minor_ver_num, @object
 1301              		.size	psc_app_sub_minor_ver_num, 2
 1302              	psc_app_sub_minor_ver_num:
 1303 01d4 0000     		.zero	2
 1304              		.type	psc_app_minor_ver_num, @object
 1305              		.size	psc_app_minor_ver_num, 2
 1306              	psc_app_minor_ver_num:
 1307 01d6 0000     		.zero	2
 1308              		.type	psc_app_major_ver_num, @object
 1309              		.size	psc_app_major_ver_num, 2
 1310              	psc_app_major_ver_num:
 1311 01d8 0001     		.short	1
 1312              		.section	.cal_sec,"aw",@progbits
 1313              		.align 2
 1314              		.type	pdgc_override_service_0a, @object
 1315              		.size	pdgc_override_service_0a, 4
 1316              	pdgc_override_service_0a:
 1317 0000 00000000 		.zero	4
 1318              		.type	pdgc_override_service_07, @object
 1319              		.size	pdgc_override_service_07, 4
 1320              	pdgc_override_service_07:
 1321 0004 00000000 		.zero	4
 1322              		.type	pdgc_override_service_03, @object
 1323              		.size	pdgc_override_service_03, 4
 1324              	pdgc_override_service_03:
 1325 0008 00000000 		.zero	4
 1326              		.type	pdgc_func_can_rx_id, @object
 1327              		.size	pdgc_func_can_rx_id, 4
 1328              	pdgc_func_can_rx_id:
 1329 000c 00000000 		.zero	4
 1330              		.type	pdgc_emissions_report_min_sev, @object
 1331              		.size	pdgc_emissions_report_min_sev, 4
 1332              	pdgc_emissions_report_min_sev:
 1333 0010 00000001 		.long	1
 1334              		.type	pdgc_can_bus_id, @object
 1335              		.size	pdgc_can_bus_id, 1
 1336              	pdgc_can_bus_id:
 1337 0014 00       		.zero	1
 1338              		.type	pdgc_can_rx_id_extd, @object
 1339              		.size	pdgc_can_rx_id_extd, 1
 1340              	pdgc_can_rx_id_extd:
 1341 0015 00       		.zero	1
 1342 0016 0000     		.zero	2
 1343              		.type	pdgc_can_rx_id, @object
 1344              		.size	pdgc_can_rx_id, 4
 1345              	pdgc_can_rx_id:
 1346 0018 00000000 		.zero	4
 1347              		.type	pdgc_can_tx_id_extd, @object
 1348              		.size	pdgc_can_tx_id_extd, 1
 1349              	pdgc_can_tx_id_extd:
 1350 001c 00       		.zero	1
 1351 001d 000000   		.zero	3
 1352              		.type	pdgc_can_tx_id, @object
 1353              		.size	pdgc_can_tx_id, 4
 1354              	pdgc_can_tx_id:
 1355 0020 00000000 		.zero	4
 1356              		.type	svcc_ecu_reprog_seedkey_cal, @object
 1357              		.size	svcc_ecu_reprog_seedkey_cal, 4
 1358              	svcc_ecu_reprog_seedkey_cal:
 1359 0024 10DEED82 		.long	283045250
 1360              		.type	svcc_ecu_config_seedkey_cal, @object
 1361              		.size	svcc_ecu_config_seedkey_cal, 4
 1362              	svcc_ecu_config_seedkey_cal:
 1363 0028 10ACED08 		.long	279768328
 1364              		.type	pj1939c_node_addr_0, @object
 1365              		.size	pj1939c_node_addr_0, 1
 1366              	pj1939c_node_addr_0:
 1367 002c 00       		.zero	1
 1368 002d 00       		.zero	1
 1369              		.type	mplc_tcr1_scalar, @object
 1370              		.size	mplc_tcr1_scalar, 2
 1371              	mplc_tcr1_scalar:
 1372 002e 0000     		.zero	2
 1373              		.type	pioc_rate_spot_max_hz, @object
 1374              		.size	pioc_rate_spot_max_hz, 4
 1375              	pioc_rate_spot_max_hz:
 1376 0030 461C4000 		.long	1176256512
 1377              		.type	pioc_rate_pot_max_hz, @object
 1378              		.size	pioc_rate_pot_max_hz, 4
 1379              	pioc_rate_pot_max_hz:
 1380 0034 461C4000 		.long	1176256512
 1381              		.section	".bss"
 1382              		.align 2
 1383              		.type	ccp_odt_list, @object
 1384              		.size	ccp_odt_list, 3360
 1385              	ccp_odt_list:
 1386 0000 00000000 		.zero	3360
 1386      00000000 
 1386      00000000 
 1386      00000000 
 1386      00000000 
 1387              		.type	ccp_daq_list, @object
 1388              		.size	ccp_daq_list, 32
 1389              	ccp_daq_list:
 1390 0d20 00000000 		.zero	32
 1390      00000000 
 1390      00000000 
 1390      00000000 
 1390      00000000 
 1391              		.type	pfs_directory, @object
 1392              		.size	pfs_directory, 40
 1393              	pfs_directory:
 1394 0d40 00000000 		.zero	40
 1394      00000000 
 1394      00000000 
 1394      00000000 
 1394      00000000 
 1395              		.type	pfs_write_queue, @object
 1396              		.size	pfs_write_queue, 816
 1397              	pfs_write_queue:
 1398 0d68 00000000 		.zero	816
 1398      00000000 
 1398      00000000 
 1398      00000000 
 1398      00000000 
 1399              		.type	pdg_routine_table, @object
 1400              		.size	pdg_routine_table, 40
 1401              	pdg_routine_table:
 1402 1098 00000000 		.zero	40
 1402      00000000 
 1402      00000000 
 1402      00000000 
 1402      00000000 
 1403              		.type	out_queue, @object
 1404              		.size	out_queue, 16
 1405              	out_queue:
 1406 10c0 00000000 		.zero	16
 1406      00000000 
 1406      00000000 
 1406      00000000 
 1407              		.type	in_queue, @object
 1408              		.size	in_queue, 16
 1409              	in_queue:
 1410 10d0 00000000 		.zero	16
 1410      00000000 
 1410      00000000 
 1410      00000000 
 1411              		.type	rx_message, @object
 1412              		.size	rx_message, 28
 1413              	rx_message:
 1414 10e0 00000000 		.zero	28
 1414      00000000 
 1414      00000000 
 1414      00000000 
 1414      00000000 
 1415              		.type	tx_state, @object
 1416              		.size	tx_state, 16
 1417              	tx_state:
 1418 10fc 00000000 		.zero	16
 1418      00000000 
 1418      00000000 
 1418      00000000 
 1419              		.type	pj1939_msg_buffer, @object
 1420              		.size	pj1939_msg_buffer, 1785
 1421              	pj1939_msg_buffer:
 1422 110c 00000000 		.zero	1785
 1422      00000000 
 1422      00000000 
 1422      00000000 
 1422      00000000 
 1423 1805 000000   		.zero	3
 1424              		.type	pj1939_ttx_buf_data, @object
 1425              		.size	pj1939_ttx_buf_data, 1785
 1426              	pj1939_ttx_buf_data:
 1427 1808 00000000 		.zero	1785
 1427      00000000 
 1427      00000000 
 1427      00000000 
 1427      00000000 
 1428 1f01 000000   		.zero	3
 1429              		.type	pj1939_ttx_buf, @object
 1430              		.size	pj1939_ttx_buf, 16
 1431              	pj1939_ttx_buf:
 1432 1f04 00000000 		.zero	16
 1432      00000000 
 1432      00000000 
 1432      00000000 
 1433              		.type	pcx_queued_tx_list, @object
 1434              		.size	pcx_queued_tx_list, 12
 1435              	pcx_queued_tx_list:
 1436 1f14 00000000 		.zero	12
 1436      00000000 
 1436      00000000 
 1437              		.type	pcx_tx_msg, @object
 1438              		.size	pcx_tx_msg, 64
 1439              	pcx_tx_msg:
 1440 1f20 00000000 		.zero	64
 1440      00000000 
 1440      00000000 
 1440      00000000 
 1440      00000000 
 1441              		.type	pcx_rx_msg, @object
 1442              		.size	pcx_rx_msg, 56
 1443              	pcx_rx_msg:
 1444 1f60 00000000 		.zero	56
 1444      00000000 
 1444      00000000 
 1444      00000000 
 1444      00000000 
 1445              		.type	pkn_max_task_time, @object
 1446              		.size	pkn_max_task_time, 76
 1447              	pkn_max_task_time:
 1448 1f98 00000000 		.zero	76
 1448      00000000 
 1448      00000000 
 1448      00000000 
 1448      00000000 
 1449              		.type	pkn_task_time, @object
 1450              		.size	pkn_task_time, 76
 1451              	pkn_task_time:
 1452 1fe4 00000000 		.zero	76
 1452      00000000 
 1452      00000000 
 1452      00000000 
 1452      00000000 
 1453              		.type	pkn_task_accum_time, @object
 1454              		.size	pkn_task_accum_time, 76
 1455              	pkn_task_accum_time:
 1456 2030 00000000 		.zero	76
 1456      00000000 
 1456      00000000 
 1456      00000000 
 1456      00000000 
 1457              		.type	pkn_task_start_time, @object
 1458              		.size	pkn_task_start_time, 76
 1459              	pkn_task_start_time:
 1460 207c 00000000 		.zero	76
 1460      00000000 
 1460      00000000 
 1460      00000000 
 1460      00000000 
 1461              		.type	pkn_ceiling_records, @object
 1462              		.size	pkn_ceiling_records, 24
 1463              	pkn_ceiling_records:
 1464 20c8 00000000 		.zero	24
 1464      00000000 
 1464      00000000 
 1464      00000000 
 1464      00000000 
 1465              		.type	pkn_periodic_task_overrun_count, @object
 1466              		.size	pkn_periodic_task_overrun_count, 15
 1467              	pkn_periodic_task_overrun_count:
 1468 20e0 00000000 		.zero	15
 1468      00000000 
 1468      00000000 
 1468      000000
 1469 20ef 00       		.zero	1
 1470              		.type	pkn_periodic_records, @object
 1471              		.size	pkn_periodic_records, 60
 1472              	pkn_periodic_records:
 1473 20f0 00000000 		.zero	60
 1473      00000000 
 1473      00000000 
 1473      00000000 
 1473      00000000 
 1474              		.section	.text_data,"a",@progbits
 1475              		.align 1
 1476              		.type	psc_app_build_year, @object
 1477              		.size	psc_app_build_year, 2
 1478              	psc_app_build_year:
 1479 0000 07E4     		.short	2020
 1480              		.type	psc_app_build_month, @object
 1481              		.size	psc_app_build_month, 2
 1482              	psc_app_build_month:
 1483 0002 0005     		.short	5
 1484              		.type	psc_app_build_day, @object
 1485              		.size	psc_app_build_day, 2
 1486              	psc_app_build_day:
 1487 0004 001F     		.short	31
 1488              		.type	psc_app_build_hour, @object
 1489              		.size	psc_app_build_hour, 2
 1490              	psc_app_build_hour:
 1491 0006 0012     		.short	18
 1492              		.type	psc_app_build_min, @object
 1493              		.size	psc_app_build_min, 2
 1494              	psc_app_build_min:
 1495 0008 0021     		.short	33
 1496              		.type	psc_app_build_sec, @object
 1497              		.size	psc_app_build_sec, 2
 1498              	psc_app_build_sec:
 1499 000a 003A     		.short	58
 1500              		.section	".text"
 1501              	.Letext0:
 1502              		.file 2 "c:/openecu/platform/2_6_0_r2016-1/openecu/../targets/M250/M250_000/mpc5534_lib/include/ps
 1503              		.file 3 "c:/openecu/platform/2_6_0_r2016-1/openecu/../targets/M250/M250_000/mpc5534_lib/include/pi
 1504              		.file 4 "c:/openecu/platform/2_6_0_r2016-1/openecu/../targets/M250/M250_000/mpc5534_lib/include/pc
 1505              		.file 5 "c:/openecu/platform/2_6_0_r2016-1/openecu/../targets/M250/M250_000/mpc5534_lib/include/pc
 1506              		.file 6 "c:/openecu/platform/2_6_0_r2016-1/openecu/../targets/M250/M250_000/mpc5534_lib/include/pc
 1507              		.file 7 "c:/openecu/platform/2_6_0_r2016-1/openecu/../targets/M250/M250_000/mpc5534_lib/include/pk
 1508              		.file 8 "c:/openecu/platform/2_6_0_r2016-1/openecu/../targets/M250/M250_000/mpc5534_lib/include/pf
 1509              		.file 9 "c:/openecu/platform/2_6_0_r2016-1/openecu/../targets/M250/M250_000/mpc5534_lib/include/pd
 1510              		.file 10 "c:/openecu/platform/2_6_0_r2016-1/openecu/../targets/M250/M250_000/mpc5534_lib/include/p
 1511              		.file 11 "c:/openecu/platform/2_6_0_r2016-1/openecu/../targets/M250/M250_000/mpc5534_lib/include/p
 1512              		.file 12 "c:/openecu/platform/2_6_0_r2016-1/openecu/../targets/M250/M250_000/mpc5534_lib/include/p
 1513              		.file 13 "c:/openecu/platform/2_6_0_r2016-1/openecu/../targets/M250/M250_000/mpc5534_lib/include/p
 1514              		.file 14 "c:/openecu/platform/2_6_0_r2016-1/openecu/../targets/M250/M250_000/mpc5534_lib/include/p
 1515              		.file 15 "c:/openecu/platform/2_6_0_r2016-1/openecu/../targets/M250/M250_000/mpc5534_lib/include/p
 1516              		.file 16 "mpc_v2_api.h"
 1517              		.file 17 "c:/openecu/platform/2_6_0_r2016-1/openecu/../targets/M250/M250_000/mpc5534_lib/include/p