   1              		.file	"rt_sim.c"
   2              		.section	".text"
   3              	.Ltext0:
   4              		.cfi_sections	.debug_frame
   5              		.globl __extendsfdf2
   6              		.globl __adddf3
   7              		.globl __fixdfsi
   8              		.align 2
   9              		.globl rt_SimInitTimingEngine
  10              		.type	rt_SimInitTimingEngine, @function
  11              	rt_SimInitTimingEngine:
  12              	.LFB0:
  13              		.file 1 "C:/PROGRA~1/MATLAB/R2014b/rtw/c/src/rt_sim.c"
  14              		.loc 1 96 0
  15              		.cfi_startproc
  16              	.LVL0:
  17 0000 9421FFA0 		stwu %r1,-96(%r1)
  18              	.LCFI0:
  19              		.cfi_def_cfa_offset 96
  20 0004 7C0802A6 		mflr %r0
  21 0008 90010064 		stw %r0,100(%r1)
  22 000c 91E1001C 		stw %r15,28(%r1)
  23 0010 92010020 		stw %r16,32(%r1)
  24 0014 92210024 		stw %r17,36(%r1)
  25 0018 92410028 		stw %r18,40(%r1)
  26 001c 9261002C 		stw %r19,44(%r1)
  27 0020 92810030 		stw %r20,48(%r1)
  28 0024 92A10034 		stw %r21,52(%r1)
  29 0028 92C10038 		stw %r22,56(%r1)
  30 002c 92E1003C 		stw %r23,60(%r1)
  31 0030 93010040 		stw %r24,64(%r1)
  32 0034 93210044 		stw %r25,68(%r1)
  33 0038 93410048 		stw %r26,72(%r1)
  34 003c 9361004C 		stw %r27,76(%r1)
  35 0040 93810050 		stw %r28,80(%r1)
  36 0044 93A10054 		stw %r29,84(%r1)
  37 0048 93C10058 		stw %r30,88(%r1)
  38 004c 93E1005C 		stw %r31,92(%r1)
  39              		.cfi_offset 65, 4
  40              		.cfi_offset 15, -68
  41              		.cfi_offset 16, -64
  42              		.cfi_offset 17, -60
  43              		.cfi_offset 18, -56
  44              		.cfi_offset 19, -52
  45              		.cfi_offset 20, -48
  46              		.cfi_offset 21, -44
  47              		.cfi_offset 22, -40
  48              		.cfi_offset 23, -36
  49              		.cfi_offset 24, -32
  50              		.cfi_offset 25, -28
  51              		.cfi_offset 26, -24
  52              		.cfi_offset 27, -20
  53              		.cfi_offset 28, -16
  54              		.cfi_offset 29, -12
  55              		.cfi_offset 30, -8
  56              		.cfi_offset 31, -4
  57              	.LVL1:
  58              		.loc 1 170 0
  59 0050 3C600000 		lis %r3,.LANCHOR0@ha
  60              	.LVL2:
  61 0054 38630000 		la %r3,.LANCHOR0@l(%r3)
  62 0058 90610008 		stw %r3,8(%r1)
  63              	.LVL3:
  64              		.loc 1 177 0
  65 005c 38600000 		li %r3,0
  66 0060 13891ACE 		efscmpeq %cr7,%r9,%r3
  67 0064 40FD015C 		bng+ %cr7,.L7
  68 0068 7C9A2378 		mr %r26,%r4
  69              	.LVL4:
  70 006c 7CBD2B78 		mr %r29,%r5
  71              	.LVL5:
  72 0070 7CD93378 		mr %r25,%r6
  73              	.LVL6:
  74 0074 7CF83B78 		mr %r24,%r7
  75              	.LVL7:
  76 0078 7D174378 		mr %r23,%r8
  77              	.LVL8:
  78              		.loc 1 181 0
  79 007c 39200001 		li %r9,1
  80              	.LVL9:
  81 0080 912A0000 		stw %r9,0(%r10)
  82              		.loc 1 183 0
  83 0084 39410008 		addi %r10,%r1,8
  84              	.LVL10:
  85 0088 81210068 		lwz %r9,104(%r1)
  86 008c 91490000 		stw %r10,0(%r9)
  87              	.LVL11:
  88 0090 3B600000 		li %r27,0
  89              		.loc 1 185 0
  90 0094 3B800000 		li %r28,0
  91              		.loc 1 189 0
  92 0098 3FC03FE0 		lis %r30,0x3fe0
  93 009c 3BE00000 		li %r31,0
  94              		.loc 1 190 0
  95 00a0 7C741B78 		mr %r20,%r3
  96              		.loc 1 192 0
  97 00a4 3A400000 		li %r18,0
  98              		.loc 1 194 0
  99 00a8 3A200001 		li %r17,1
 100              		.loc 1 198 0
 101 00ac 3E00BF80 		lis %r16,0xbf80
 102              	.LVL12:
 103              	.L6:
 104              		.loc 1 186 0
 105 00b0 7F97D92E 		stwx %r28,%r23,%r27
 106              		.loc 1 187 0
 107 00b4 7D5DD82E 		lwzx %r10,%r29,%r27
 108 00b8 5795103A 		slwi %r21,%r28,2
 109 00bc 81210008 		lwz %r9,8(%r1)
 110 00c0 7D49A92E 		stwx %r10,%r9,%r21
 111              		.loc 1 188 0
 112 00c4 82C10008 		lwz %r22,8(%r1)
 113 00c8 7E79D82E 		lwzx %r19,%r25,%r27
 114 00cc 7D36AA14 		add %r9,%r22,%r21
 115 00d0 92690008 		stw %r19,8(%r9)
 116              		.loc 1 189 0
 117 00d4 7C7DD82E 		lwzx %r3,%r29,%r27
 118 00d8 1063D2C9 		efsdiv %r3,%r3,%r26
 119 00dc 48000001 		bl __extendsfdf2
 120              	.LVL13:
 121 00e0 7FC5F378 		mr %r5,%r30
 122 00e4 7FE6FB78 		mr %r6,%r31
 123 00e8 48000001 		bl __adddf3
 124              	.LVL14:
 125 00ec 48000001 		bl floor
 126              	.LVL15:
 127 00f0 39FC0008 		addi %r15,%r28,8
 128 00f4 55EF103A 		slwi %r15,%r15,2
 129 00f8 48000001 		bl __fixdfsi
 130              	.LVL16:
 131 00fc 7C76792E 		stwx %r3,%r22,%r15
 132              		.loc 1 190 0
 133 0100 7D36A82E 		lwzx %r9,%r22,%r21
 134 0104 1389A2CE 		efscmpeq %cr7,%r9,%r20
 135 0108 41DD000C 		bgt- %cr7,.L3
 136              		.loc 1 190 0 is_stmt 0 discriminator 1
 137 010c 1393A2CE 		efscmpeq %cr7,%r19,%r20
 138 0110 40DD0020 		bng- %cr7,.L4
 139              	.L3:
 140              		.loc 1 192 0 is_stmt 1
 141 0114 393C0004 		addi %r9,%r28,4
 142 0118 5529103A 		slwi %r9,%r9,2
 143 011c 7D564A14 		add %r10,%r22,%r9
 144 0120 924A0008 		stw %r18,8(%r10)
 145              		.loc 1 193 0
 146 0124 7E96492E 		stwx %r20,%r22,%r9
 147              		.loc 1 194 0
 148 0128 7E38D92E 		stwx %r17,%r24,%r27
 149 012c 4800003C 		b .L5
 150              	.L4:
 151              		.loc 1 196 0
 152 0130 10699AC1 		efssub %r3,%r9,%r19
 153 0134 1063D2C9 		efsdiv %r3,%r3,%r26
 154 0138 48000001 		bl __extendsfdf2
 155              	.LVL17:
 156 013c 7FC5F378 		mr %r5,%r30
 157 0140 7FE6FB78 		mr %r6,%r31
 158 0144 48000001 		bl __adddf3
 159              	.LVL18:
 160 0148 48000001 		bl floor
 161              	.LVL19:
 162 014c 3ABC0004 		addi %r21,%r28,4
 163 0150 56B5103A 		slwi %r21,%r21,2
 164 0154 7E76AA14 		add %r19,%r22,%r21
 165 0158 48000001 		bl __fixdfsi
 166              	.LVL20:
 167 015c 90730008 		stw %r3,8(%r19)
 168              		.loc 1 198 0
 169 0160 7E16A92E 		stwx %r16,%r22,%r21
 170              		.loc 1 199 0
 171 0164 7E58D92E 		stwx %r18,%r24,%r27
 172              	.L5:
 173              	.LVL21:
 174 0168 3B7B0004 		addi %r27,%r27,4
 175              		.loc 1 185 0
 176 016c 2F9C0001 		cmpwi %cr7,%r28,1
 177 0170 3B9C0001 		addi %r28,%r28,1
 178              	.LVL22:
 179 0174 40FEFF3C 		bne+ %cr7,.L6
 180              		.loc 1 204 0
 181 0178 81210008 		lwz %r9,8(%r1)
 182 017c 93490000 		stw %r26,0(%r9)
 183              		.loc 1 205 0
 184 0180 81210008 		lwz %r9,8(%r1)
 185 0184 39400001 		li %r10,1
 186 0188 91490020 		stw %r10,32(%r9)
 187              		.loc 1 211 0
 188 018c 811D0000 		lwz %r8,0(%r29)
 189 0190 39400000 		li %r10,0
 190 0194 138852CE 		efscmpeq %cr7,%r8,%r10
 191 0198 7D000026 		mfcr %r8
 192 019c 5508F7FE 		rlwinm %r8,%r8,30,31,31
 193              		.loc 1 212 0
 194 01a0 80FD0004 		lwz %r7,4(%r29)
 195 01a4 138752CE 		efscmpeq %cr7,%r7,%r10
 196 01a8 7D400026 		mfcr %r10
 197 01ac 554AF7FE 		rlwinm %r10,%r10,30,31,31
 198              		.loc 1 211 0
 199 01b0 7D485214 		add %r10,%r8,%r10
 200 01b4 91490028 		stw %r10,40(%r9)
 201              		.loc 1 214 0
 202 01b8 38600000 		li %r3,0
 203 01bc 4800000C 		b .L2
 204              	.LVL23:
 205              	.L7:
 206              		.loc 1 178 0
 207 01c0 3C600000 		lis %r3,.LC0@ha
 208 01c4 38630000 		la %r3,.LC0@l(%r3)
 209              	.LVL24:
 210              	.L2:
 211              		.loc 1 218 0
 212 01c8 80010064 		lwz %r0,100(%r1)
 213 01cc 7C0803A6 		mtlr %r0
 214 01d0 81E1001C 		lwz %r15,28(%r1)
 215 01d4 82010020 		lwz %r16,32(%r1)
 216 01d8 82210024 		lwz %r17,36(%r1)
 217 01dc 82410028 		lwz %r18,40(%r1)
 218 01e0 8261002C 		lwz %r19,44(%r1)
 219 01e4 82810030 		lwz %r20,48(%r1)
 220 01e8 82A10034 		lwz %r21,52(%r1)
 221 01ec 82C10038 		lwz %r22,56(%r1)
 222 01f0 82E1003C 		lwz %r23,60(%r1)
 223 01f4 83010040 		lwz %r24,64(%r1)
 224 01f8 83210044 		lwz %r25,68(%r1)
 225 01fc 83410048 		lwz %r26,72(%r1)
 226 0200 8361004C 		lwz %r27,76(%r1)
 227 0204 83810050 		lwz %r28,80(%r1)
 228 0208 83A10054 		lwz %r29,84(%r1)
 229 020c 83C10058 		lwz %r30,88(%r1)
 230 0210 83E1005C 		lwz %r31,92(%r1)
 231 0214 38210060 		addi %r1,%r1,96
 232              	.LCFI1:
 233              		.cfi_restore 31
 234              		.cfi_restore 30
 235              		.cfi_restore 29
 236              		.cfi_restore 28
 237              		.cfi_restore 27
 238              		.cfi_restore 26
 239              		.cfi_restore 25
 240              		.cfi_restore 24
 241              		.cfi_restore 23
 242              		.cfi_restore 22
 243              		.cfi_restore 21
 244              		.cfi_restore 20
 245              		.cfi_restore 19
 246              		.cfi_restore 18
 247              		.cfi_restore 17
 248              		.cfi_restore 16
 249              		.cfi_restore 15
 250              		.cfi_restore 65
 251              		.cfi_def_cfa_offset 0
 252 0218 4E800020 		blr
 253              		.cfi_endproc
 254              	.LFE0:
 255              		.size	rt_SimInitTimingEngine, .-rt_SimInitTimingEngine
 256              		.align 2
 257              		.globl rt_SimUpdateDiscreteEvents
 258              		.type	rt_SimUpdateDiscreteEvents, @function
 259              	rt_SimUpdateDiscreteEvents:
 260              	.LFB1:
 261              		.loc 1 442 0
 262              		.cfi_startproc
 263              	.LVL25:
 264 021c 9421FFE0 		stwu %r1,-32(%r1)
 265              	.LCFI2:
 266              		.cfi_def_cfa_offset 32
 267 0220 93410008 		stw %r26,8(%r1)
 268 0224 9361000C 		stw %r27,12(%r1)
 269 0228 93810010 		stw %r28,16(%r1)
 270 022c 93A10014 		stw %r29,20(%r1)
 271 0230 93C10018 		stw %r30,24(%r1)
 272 0234 93E1001C 		stw %r31,28(%r1)
 273              		.cfi_offset 26, -24
 274              		.cfi_offset 27, -20
 275              		.cfi_offset 28, -16
 276              		.cfi_offset 29, -12
 277              		.cfi_offset 30, -8
 278              		.cfi_offset 31, -4
 279              	.LVL26:
 280              		.loc 1 483 0
 281 0238 3BC3FFFF 		addi %r30,%r3,-1
 282              		.loc 1 438 0
 283 023c 3D200000 		lis %r9,.LANCHOR0@ha
 284 0240 39290000 		la %r9,.LANCHOR0@l(%r9)
 285 0244 3BE30003 		addi %r31,%r3,3
 286 0248 57FF103A 		slwi %r31,%r31,2
 287 024c 7FE9FA14 		add %r31,%r9,%r31
 288 0250 389F0008 		addi %r4,%r31,8
 289              	.LVL27:
 290 0254 3BA30008 		addi %r29,%r3,8
 291 0258 57BD103A 		slwi %r29,%r29,2
 292 025c 7FA9EA14 		add %r29,%r9,%r29
 293 0260 546C103A 		slwi %r12,%r3,2
 294 0264 7D856214 		add %r12,%r5,%r12
 295 0268 57DE103A 		slwi %r30,%r30,2
 296 026c 7FC5F214 		add %r30,%r5,%r30
 297 0270 7C6018F8 		nor %r0,%r3,%r3
 298 0274 5400103A 		slwi %r0,%r0,2
 299 0278 7D2319D6 		mullw %r9,%r3,%r3
 300 027c 3929FFFF 		addi %r9,%r9,-1
 301 0280 5529103A 		slwi %r9,%r9,2
 302 0284 7CC64A14 		add %r6,%r6,%r9
 303              	.LVL28:
 304 0288 38ECFFFC 		addi %r7,%r12,-4
 305              		.loc 1 459 0
 306 028c 7C651B78 		mr %r5,%r3
 307              	.LVL29:
 308              		.loc 1 480 0
 309 0290 3B800000 		li %r28,0
 310              		.loc 1 466 0
 311 0294 3B400001 		li %r26,1
 312              		.loc 1 467 0
 313 0298 3F603F80 		lis %r27,0x3f80
 314              		.loc 1 460 0
 315 029c 48000080 		b .L11
 316              	.LVL30:
 317              	.L16:
 318              		.loc 1 438 0
 319 02a0 7C8B2378 		mr %r11,%r4
 320              		.loc 1 461 0
 321 02a4 81240000 		lwz %r9,0(%r4)
 322 02a8 2F890000 		cmpwi %cr7,%r9,0
 323 02ac 40DE003C 		bne- %cr7,.L12
 324              		.loc 1 466 0
 325 02b0 934CFFFC 		stw %r26,-4(%r12)
 326              		.loc 1 467 0
 327 02b4 813F0000 		lwz %r9,0(%r31)
 328 02b8 1129DAC0 		efsadd %r9,%r9,%r27
 329 02bc 913F0000 		stw %r9,0(%r31)
 330              	.LVL31:
 331              		.loc 1 438 0
 332 02c0 39250001 		addi %r9,%r5,1
 333              		.loc 1 472 0
 334 02c4 7F834800 		cmpw %cr7,%r3,%r9
 335 02c8 40DD0024 		ble- %cr7,.L13
 336 02cc 7CCA3378 		mr %r10,%r6
 337 02d0 7FC9F378 		mr %r9,%r30
 338              	.LVL32:
 339              	.L14:
 340              		.loc 1 473 0 discriminator 2
 341 02d4 85090004 		lwzu %r8,4(%r9)
 342 02d8 950A0004 		stwu %r8,4(%r10)
 343              		.loc 1 472 0 discriminator 2
 344 02dc 7F893800 		cmpw %cr7,%r9,%r7
 345 02e0 40FEFFF4 		bne+ %cr7,.L14
 346 02e4 48000008 		b .L13
 347              	.L12:
 348              		.loc 1 480 0
 349 02e8 938CFFFC 		stw %r28,-4(%r12)
 350              	.L13:
 351              		.loc 1 483 0
 352 02ec 812B0000 		lwz %r9,0(%r11)
 353 02f0 39290001 		addi %r9,%r9,1
 354 02f4 912B0000 		stw %r9,0(%r11)
 355 02f8 855DFFFC 		lwzu %r10,-4(%r29)
 356 02fc 7F895000 		cmpw %cr7,%r9,%r10
 357 0300 40FE0008 		bne+ %cr7,.L15
 358              		.loc 1 484 0
 359 0304 938B0000 		stw %r28,0(%r11)
 360              	.L15:
 361 0308 3884FFFC 		addi %r4,%r4,-4
 362 030c 398CFFFC 		addi %r12,%r12,-4
 363 0310 3BFFFFFC 		addi %r31,%r31,-4
 364 0314 3BDEFFFC 		addi %r30,%r30,-4
 365 0318 7CC60214 		add %r6,%r6,%r0
 366              	.L11:
 367              	.LVL33:
 368              		.loc 1 460 0 discriminator 1
 369 031c 34A5FFFF 		addic. %r5,%r5,-1
 370              	.LVL34:
 371 0320 40E0FF80 		bge+ %cr0,.L16
 372              		.loc 1 488 0
 373 0324 3D200000 		lis %r9,.LANCHOR0@ha
 374 0328 39490000 		la %r10,.LANCHOR0@l(%r9)
 375 032c 806A0010 		lwz %r3,16(%r10)
 376              	.LVL35:
 377 0330 81290000 		lwz %r9,.LANCHOR0@l(%r9)
 378              		.loc 1 490 0
 379 0334 10634AC8 		efsmul %r3,%r3,%r9
 380 0338 83410008 		lwz %r26,8(%r1)
 381 033c 8361000C 		lwz %r27,12(%r1)
 382 0340 83810010 		lwz %r28,16(%r1)
 383 0344 83A10014 		lwz %r29,20(%r1)
 384 0348 83C10018 		lwz %r30,24(%r1)
 385 034c 83E1001C 		lwz %r31,28(%r1)
 386 0350 38210020 		addi %r1,%r1,32
 387              	.LCFI3:
 388              		.cfi_restore 31
 389              		.cfi_restore 30
 390              		.cfi_restore 29
 391              		.cfi_restore 28
 392              		.cfi_restore 27
 393              		.cfi_restore 26
 394              		.cfi_def_cfa_offset 0
 395 0354 4E800020 		blr
 396              		.cfi_endproc
 397              	.LFE1:
 398              		.size	rt_SimUpdateDiscreteEvents, .-rt_SimUpdateDiscreteEvents
 399              		.align 2
 400              		.globl rt_SimUpdateDiscreteTaskTime
 401              		.type	rt_SimUpdateDiscreteTaskTime, @function
 402              	rt_SimUpdateDiscreteTaskTime:
 403              	.LFB2:
 404              		.loc 1 505 0
 405              		.cfi_startproc
 406              	.LVL36:
 407              		.loc 1 523 0
 408 0358 54A9103A 		slwi %r9,%r5,2
 409 035c 3D400000 		lis %r10,.LANCHOR0@ha
 410 0360 394A0000 		la %r10,.LANCHOR0@l(%r10)
 411 0364 38A50004 		addi %r5,%r5,4
 412              	.LVL37:
 413 0368 54A5103A 		slwi %r5,%r5,2
 414              	.LVL38:
 415 036c 7D0A4A14 		add %r8,%r10,%r9
 416 0370 7CEA282E 		lwzx %r7,%r10,%r5
 417 0374 7D4A482E 		lwzx %r10,%r10,%r9
 418 0378 114752C8 		efsmul %r10,%r7,%r10
 419 037c 81080008 		lwz %r8,8(%r8)
 420 0380 114A42C0 		efsadd %r10,%r10,%r8
 421 0384 7D43492E 		stwx %r10,%r3,%r9
 422 0388 4E800020 		blr
 423              		.cfi_endproc
 424              	.LFE2:
 425              		.size	rt_SimUpdateDiscreteTaskTime, .-rt_SimUpdateDiscreteTaskTime
 426              		.align 2
 427              		.globl rt_InitTimingEngine
 428              		.type	rt_InitTimingEngine, @function
 429              	rt_InitTimingEngine:
 430              	.LFB3:
 431              		.loc 1 538 0
 432              		.cfi_startproc
 433              	.LVL39:
 434 038c 9421FFF0 		stwu %r1,-16(%r1)
 435              	.LCFI4:
 436              		.cfi_def_cfa_offset 16
 437 0390 7C0802A6 		mflr %r0
 438 0394 90010014 		stw %r0,20(%r1)
 439              		.cfi_offset 65, 4
 440 0398 7C691B78 		mr %r9,%r3
 441              		.loc 1 541 0
 442 039c 8143014C 		lwz %r10,332(%r3)
 443              		.loc 1 539 0
 444 03a0 8063002C 		lwz %r3,44(%r3)
 445              	.LVL40:
 446 03a4 808A0050 		lwz %r4,80(%r10)
 447 03a8 80A90184 		lwz %r5,388(%r9)
 448 03ac 80C90188 		lwz %r6,392(%r9)
 449 03b0 80EA0008 		lwz %r7,8(%r10)
 450 03b4 81090194 		lwz %r8,404(%r9)
 451 03b8 812A000C 		lwz %r9,12(%r10)
 452              	.LVL41:
 453 03bc 396A001C 		addi %r11,%r10,28
 454 03c0 91610008 		stw %r11,8(%r1)
 455 03c4 394A0020 		addi %r10,%r10,32
 456 03c8 48000001 		bl rt_SimInitTimingEngine
 457              	.LVL42:
 458              		.loc 1 550 0
 459 03cc 80010014 		lwz %r0,20(%r1)
 460 03d0 7C0803A6 		mtlr %r0
 461 03d4 38210010 		addi %r1,%r1,16
 462              	.LCFI5:
 463              		.cfi_restore 65
 464              		.cfi_def_cfa_offset 0
 465 03d8 4E800020 		blr
 466              		.cfi_endproc
 467              	.LFE3:
 468              		.size	rt_InitTimingEngine, .-rt_InitTimingEngine
 469              		.align 2
 470              		.globl rt_UpdateDiscreteEvents
 471              		.type	rt_UpdateDiscreteEvents, @function
 472              	rt_UpdateDiscreteEvents:
 473              	.LFB4:
 474              		.loc 1 579 0
 475              		.cfi_startproc
 476              	.LVL43:
 477 03dc 9421FFF8 		stwu %r1,-8(%r1)
 478              	.LCFI6:
 479              		.cfi_def_cfa_offset 8
 480 03e0 7C0802A6 		mflr %r0
 481 03e4 9001000C 		stw %r0,12(%r1)
 482              		.cfi_offset 65, 4
 483              		.loc 1 582 0
 484 03e8 8123014C 		lwz %r9,332(%r3)
 485              		.loc 1 580 0
 486 03ec 8063002C 		lwz %r3,44(%r3)
 487              	.LVL44:
 488 03f0 8089001C 		lwz %r4,28(%r9)
 489 03f4 80A90008 		lwz %r5,8(%r9)
 490 03f8 80C900E8 		lwz %r6,232(%r9)
 491 03fc 48000001 		bl rt_SimUpdateDiscreteEvents
 492              	.LVL45:
 493              		.loc 1 585 0
 494 0400 8001000C 		lwz %r0,12(%r1)
 495 0404 7C0803A6 		mtlr %r0
 496 0408 38210008 		addi %r1,%r1,8
 497              	.LCFI7:
 498              		.cfi_restore 65
 499              		.cfi_def_cfa_offset 0
 500 040c 4E800020 		blr
 501              		.cfi_endproc
 502              	.LFE4:
 503              		.size	rt_UpdateDiscreteEvents, .-rt_UpdateDiscreteEvents
 504              		.align 2
 505              		.globl rt_UpdateDiscreteTaskTime
 506              		.type	rt_UpdateDiscreteTaskTime, @function
 507              	rt_UpdateDiscreteTaskTime:
 508              	.LFB5:
 509              		.loc 1 588 0
 510              		.cfi_startproc
 511              	.LVL46:
 512 0410 9421FFF8 		stwu %r1,-8(%r1)
 513              	.LCFI8:
 514              		.cfi_def_cfa_offset 8
 515 0414 7C0802A6 		mflr %r0
 516 0418 9001000C 		stw %r0,12(%r1)
 517              		.cfi_offset 65, 4
 518 041c 7C852378 		mr %r5,%r4
 519              		.loc 1 589 0
 520 0420 8123014C 		lwz %r9,332(%r3)
 521 0424 80690004 		lwz %r3,4(%r9)
 522              	.LVL47:
 523 0428 8089001C 		lwz %r4,28(%r9)
 524              	.LVL48:
 525 042c 48000001 		bl rt_SimUpdateDiscreteTaskTime
 526              	.LVL49:
 527              		.loc 1 590 0
 528 0430 8001000C 		lwz %r0,12(%r1)
 529 0434 7C0803A6 		mtlr %r0
 530 0438 38210008 		addi %r1,%r1,8
 531              	.LCFI9:
 532              		.cfi_restore 65
 533              		.cfi_def_cfa_offset 0
 534 043c 4E800020 		blr
 535              		.cfi_endproc
 536              	.LFE5:
 537              		.size	rt_UpdateDiscreteTaskTime, .-rt_UpdateDiscreteTaskTime
 538              		.section	.rodata.str1.4,"aMS",@progbits,1
 539              		.align 2
 540              	.LC0:
 541 0000 53746172 		.string	"Start time must be zero for real-time systems.  For non-zero start times you must use the
 541      74207469 
 541      6D65206D 
 541      75737420 
 541      6265207A 
 542              		.section	".bss"
 543              		.align 2
 544              		.set	.LANCHOR0,. + 0
 545              		.type	td_struct, @object
 546              		.size	td_struct, 44
 547              	td_struct:
 548 0000 00000000 		.zero	44
 548      00000000 
 548      00000000 
 548      00000000 
 548      00000000 
 549              		.section	".text"
 550              	.Letext0:
 551              		.file 2 "C:/PROGRA~1/MATLAB/R2014b/extern/include/tmwtypes.h"
 552              		.file 3 "C:/PROGRA~1/MATLAB/R2014b/simulink/include/simstruc.h"
 553              		.file 4 "C:/PROGRA~1/MATLAB/R2014b/simulink/include/sl_types_def.h"
 554              		.file 5 "C:/PROGRA~1/MATLAB/R2014b/simulink/include/simstruc_types.h"
 555              		.file 6 "C:/PROGRA~1/MATLAB/R2014b/simulink/include/rtw_matlogging.h"
 556              		.file 7 "C:/PROGRA~1/MATLAB/R2014b/simulink/include/rtw_extmode.h"
 557              		.file 8 "C:/PROGRA~1/MATLAB/R2014b/simulink/include/rtw_continuous.h"
 558              		.file 9 "C:/PROGRA~1/MATLAB/R2014b/simulink/include/rtw_solver.h"
 559              		.file 10 "C:/PROGRA~1/MATLAB/R2014b/simulink/include/sl_datatype_access.h"
 560              		.file 11 "C:/PROGRA~1/MATLAB/R2014b/simulink/include/sl_common_types_def.h"
 561              		.file 12 "c:\\openecu\\platform\\2_6_0_r2016-1\\tools\\gcc_4_7_3\\ppc\\bin\\../lib/gcc/powerpc-eab